
tcc1:     file format elf64-x86-64


Disassembly of section .text:

000000000804a2c0 <_start>:
 804a2c0:	31 ed                	xor    %ebp,%ebp
 804a2c2:	49 89 d1             	mov    %rdx,%r9
 804a2c5:	5e                   	pop    %rsi
 804a2c6:	48 89 e2             	mov    %rsp,%rdx
 804a2c9:	48 83 e4 f0          	and    $0xfffffffffffffff0,%rsp
 804a2cd:	50                   	push   %rax
 804a2ce:	54                   	push   %rsp
 804a2cf:	49 c7 c0 40 75 08 08 	mov    $0x8087540,%r8
 804a2d6:	48 c7 c1 b0 74 08 08 	mov    $0x80874b0,%rcx
 804a2dd:	48 c7 c7 56 b3 04 08 	mov    $0x804b356,%rdi
 804a2e4:	e8 c7 d7 03 00       	callq  8087ab0 <__preinit_array_end+0x10>
 804a2e9:	f4                   	hlt    
 804a2ea:	66 90                	xchg   %ax,%ax
	...

000000000804a300 <__bswap_16>:
 804a300:	55                   	push   %rbp
 804a301:	48 89 e5             	mov    %rsp,%rbp
 804a304:	48 81 ec 10 00 00 00 	sub    $0x10,%rsp
 804a30b:	48 89 7d f8          	mov    %rdi,-0x8(%rbp)
 804a30f:	8b 45 f8             	mov    -0x8(%rbp),%eax
 804a312:	c1 f8 08             	sar    $0x8,%eax
 804a315:	81 e0 ff 00 00 00    	and    $0xff,%eax
 804a31b:	8b 4d f8             	mov    -0x8(%rbp),%ecx
 804a31e:	81 e1 ff 00 00 00    	and    $0xff,%ecx
 804a324:	c1 e1 08             	shl    $0x8,%ecx
 804a327:	48 09 c8             	or     %rcx,%rax
 804a32a:	81 e0 ff ff 00 00    	and    $0xffff,%eax
 804a330:	e9 00 00 00 00       	jmpq   804a335 <__bswap_16+0x35>
 804a335:	c9                   	leaveq 
 804a336:	c3                   	retq   

000000000804a337 <__bswap_32>:
 804a337:	55                   	push   %rbp
 804a338:	48 89 e5             	mov    %rsp,%rbp
 804a33b:	48 81 ec 10 00 00 00 	sub    $0x10,%rsp
 804a342:	48 89 7d f8          	mov    %rdi,-0x8(%rbp)
 804a346:	8b 45 f8             	mov    -0x8(%rbp),%eax
 804a349:	81 e0 00 00 00 ff    	and    $0xff000000,%eax
 804a34f:	c1 e8 18             	shr    $0x18,%eax
 804a352:	8b 4d f8             	mov    -0x8(%rbp),%ecx
 804a355:	81 e1 00 00 ff 00    	and    $0xff0000,%ecx
 804a35b:	c1 e9 08             	shr    $0x8,%ecx
 804a35e:	48 09 c8             	or     %rcx,%rax
 804a361:	8b 4d f8             	mov    -0x8(%rbp),%ecx
 804a364:	81 e1 00 ff 00 00    	and    $0xff00,%ecx
 804a36a:	c1 e1 08             	shl    $0x8,%ecx
 804a36d:	48 09 c8             	or     %rcx,%rax
 804a370:	8b 4d f8             	mov    -0x8(%rbp),%ecx
 804a373:	81 e1 ff 00 00 00    	and    $0xff,%ecx
 804a379:	c1 e1 18             	shl    $0x18,%ecx
 804a37c:	48 09 c8             	or     %rcx,%rax
 804a37f:	e9 00 00 00 00       	jmpq   804a384 <__bswap_32+0x4d>
 804a384:	c9                   	leaveq 
 804a385:	c3                   	retq   

000000000804a386 <__bswap_64>:
 804a386:	55                   	push   %rbp
 804a387:	48 89 e5             	mov    %rsp,%rbp
 804a38a:	48 81 ec 10 00 00 00 	sub    $0x10,%rsp
 804a391:	48 89 7d f8          	mov    %rdi,-0x8(%rbp)
 804a395:	48 8b 45 f8          	mov    -0x8(%rbp),%rax
 804a399:	48 b9 00 00 00 00 00 	movabs $0xff00000000000000,%rcx
 804a3a0:	00 00 ff 
 804a3a3:	48 21 c8             	and    %rcx,%rax
 804a3a6:	48 89 c1             	mov    %rax,%rcx
 804a3a9:	48 c1 e9 38          	shr    $0x38,%rcx
 804a3ad:	48 8b 45 f8          	mov    -0x8(%rbp),%rax
 804a3b1:	48 ba 00 00 00 00 00 	movabs $0xff000000000000,%rdx
 804a3b8:	00 ff 00 
 804a3bb:	48 21 d0             	and    %rdx,%rax
 804a3be:	48 89 c2             	mov    %rax,%rdx
 804a3c1:	48 c1 ea 28          	shr    $0x28,%rdx
 804a3c5:	48 89 c8             	mov    %rcx,%rax
 804a3c8:	48 89 d1             	mov    %rdx,%rcx
 804a3cb:	48 09 c8             	or     %rcx,%rax
 804a3ce:	48 8b 4d f8          	mov    -0x8(%rbp),%rcx
 804a3d2:	48 ba 00 00 00 00 00 	movabs $0xff0000000000,%rdx
 804a3d9:	ff 00 00 
 804a3dc:	48 21 d1             	and    %rdx,%rcx
 804a3df:	48 89 ca             	mov    %rcx,%rdx
 804a3e2:	48 c1 ea 18          	shr    $0x18,%rdx
 804a3e6:	48 89 c1             	mov    %rax,%rcx
 804a3e9:	48 89 d0             	mov    %rdx,%rax
 804a3ec:	48 09 c1             	or     %rax,%rcx
 804a3ef:	48 8b 45 f8          	mov    -0x8(%rbp),%rax
 804a3f3:	48 ba 00 00 00 00 ff 	movabs $0xff00000000,%rdx
 804a3fa:	00 00 00 
 804a3fd:	48 21 d0             	and    %rdx,%rax
 804a400:	48 89 c2             	mov    %rax,%rdx
 804a403:	48 c1 ea 08          	shr    $0x8,%rdx
 804a407:	48 89 c8             	mov    %rcx,%rax
 804a40a:	48 89 d1             	mov    %rdx,%rcx
 804a40d:	48 09 c8             	or     %rcx,%rax
 804a410:	48 8b 4d f8          	mov    -0x8(%rbp),%rcx
 804a414:	48 ba 00 00 00 ff 00 	movabs $0xff000000,%rdx
 804a41b:	00 00 00 
 804a41e:	48 21 d1             	and    %rdx,%rcx
 804a421:	48 89 ca             	mov    %rcx,%rdx
 804a424:	48 c1 e2 08          	shl    $0x8,%rdx
 804a428:	48 89 c1             	mov    %rax,%rcx
 804a42b:	48 89 d0             	mov    %rdx,%rax
 804a42e:	48 09 c1             	or     %rax,%rcx
 804a431:	48 8b 45 f8          	mov    -0x8(%rbp),%rax
 804a435:	48 ba 00 00 ff 00 00 	movabs $0xff0000,%rdx
 804a43c:	00 00 00 
 804a43f:	48 21 d0             	and    %rdx,%rax
 804a442:	48 89 c2             	mov    %rax,%rdx
 804a445:	48 c1 e2 18          	shl    $0x18,%rdx
 804a449:	48 89 c8             	mov    %rcx,%rax
 804a44c:	48 89 d1             	mov    %rdx,%rcx
 804a44f:	48 09 c8             	or     %rcx,%rax
 804a452:	48 8b 4d f8          	mov    -0x8(%rbp),%rcx
 804a456:	48 ba 00 ff 00 00 00 	movabs $0xff00,%rdx
 804a45d:	00 00 00 
 804a460:	48 21 d1             	and    %rdx,%rcx
 804a463:	48 89 ca             	mov    %rcx,%rdx
 804a466:	48 c1 e2 28          	shl    $0x28,%rdx
 804a46a:	48 89 c1             	mov    %rax,%rcx
 804a46d:	48 89 d0             	mov    %rdx,%rax
 804a470:	48 09 c1             	or     %rax,%rcx
 804a473:	48 8b 45 f8          	mov    -0x8(%rbp),%rax
 804a477:	48 ba ff 00 00 00 00 	movabs $0xff,%rdx
 804a47e:	00 00 00 
 804a481:	48 21 d0             	and    %rdx,%rax
 804a484:	48 89 c2             	mov    %rax,%rdx
 804a487:	48 c1 e2 38          	shl    $0x38,%rdx
 804a48b:	48 89 c8             	mov    %rcx,%rax
 804a48e:	48 89 d1             	mov    %rdx,%rcx
 804a491:	48 09 c8             	or     %rcx,%rax
 804a494:	48 89 45 f0          	mov    %rax,-0x10(%rbp)
 804a498:	48 8b 45 f0          	mov    -0x10(%rbp),%rax
 804a49c:	e9 00 00 00 00       	jmpq   804a4a1 <__bswap_64+0x11b>
 804a4a1:	c9                   	leaveq 
 804a4a2:	c3                   	retq   

000000000804a4a3 <time>:
 804a4a3:	55                   	push   %rbp
 804a4a4:	48 89 e5             	mov    %rsp,%rbp
 804a4a7:	48 81 ec 10 00 00 00 	sub    $0x10,%rsp
 804a4ae:	48 89 7d f8          	mov    %rdi,-0x8(%rbp)
 804a4b2:	48 b8 00 00 00 00 00 	movabs $0x0,%rax
 804a4b9:	00 00 00 
 804a4bc:	e9 00 00 00 00       	jmpq   804a4c1 <time+0x1e>
 804a4c1:	c9                   	leaveq 
 804a4c2:	c3                   	retq   

000000000804a4c3 <help>:
 804a4c3:	55                   	push   %rbp
 804a4c4:	48 89 e5             	mov    %rsp,%rbp
 804a4c7:	48 81 ec 00 00 00 00 	sub    $0x0,%rsp
 804a4ce:	48 8d 05 53 e9 03 00 	lea    0x3e953(%rip),%rax        # 8088e28 <L.107>
 804a4d5:	48 89 c7             	mov    %rax,%rdi
 804a4d8:	b8 00 00 00 00       	mov    $0x0,%eax
 804a4dd:	e8 de d5 03 00       	callq  8087ac0 <__preinit_array_end+0x20>
 804a4e2:	c9                   	leaveq 
 804a4e3:	c3                   	retq   

000000000804a4e4 <getclock_us>:
 804a4e4:	55                   	push   %rbp
 804a4e5:	48 89 e5             	mov    %rsp,%rbp
 804a4e8:	48 81 ec 00 00 00 00 	sub    $0x0,%rsp
 804a4ef:	48 b8 00 00 00 00 00 	movabs $0x0,%rax
 804a4f6:	00 00 00 
 804a4f9:	e9 00 00 00 00       	jmpq   804a4fe <getclock_us+0x1a>
 804a4fe:	c9                   	leaveq 
 804a4ff:	c3                   	retq   

000000000804a500 <expand_args>:
 804a500:	55                   	push   %rbp
 804a501:	48 89 e5             	mov    %rsp,%rbp
 804a504:	48 81 ec 30 00 00 00 	sub    $0x30,%rsp
 804a50b:	48 89 7d f8          	mov    %rdi,-0x8(%rbp)
 804a50f:	48 89 75 f0          	mov    %rsi,-0x10(%rbp)
 804a513:	b8 00 00 00 00       	mov    $0x0,%eax
 804a518:	89 45 d4             	mov    %eax,-0x2c(%rbp)
 804a51b:	b8 00 00 00 00       	mov    $0x0,%eax
 804a520:	48 89 45 e0          	mov    %rax,-0x20(%rbp)
 804a524:	48 8b 45 f0          	mov    -0x10(%rbp),%rax
 804a528:	0f be 08             	movsbl (%rax),%ecx
 804a52b:	48 89 cf             	mov    %rcx,%rdi
 804a52e:	b8 00 00 00 00       	mov    $0x0,%eax
 804a533:	e8 5a 15 00 00       	callq  804ba92 <is_space>
 804a538:	85 c0                	test   %eax,%eax
 804a53a:	0f 84 1a 00 00 00    	je     804a55a <expand_args+0x5a>
 804a540:	48 8b 45 f0          	mov    -0x10(%rbp),%rax
 804a544:	48 89 c1             	mov    %rax,%rcx
 804a547:	48 ba 01 00 00 00 00 	movabs $0x1,%rdx
 804a54e:	00 00 00 
 804a551:	48 01 d0             	add    %rdx,%rax
 804a554:	48 89 45 f0          	mov    %rax,-0x10(%rbp)
 804a558:	eb ca                	jmp    804a524 <expand_args+0x24>
 804a55a:	48 8b 45 f0          	mov    -0x10(%rbp),%rax
 804a55e:	0f be 08             	movsbl (%rax),%ecx
 804a561:	83 f9 00             	cmp    $0x0,%ecx
 804a564:	0f 85 05 00 00 00    	jne    804a56f <expand_args+0x6f>
 804a56a:	e9 e0 00 00 00       	jmpq   804a64f <expand_args+0x14f>
 804a56f:	48 8b 45 f0          	mov    -0x10(%rbp),%rax
 804a573:	48 89 45 e8          	mov    %rax,-0x18(%rbp)
 804a577:	48 8b 45 f0          	mov    -0x10(%rbp),%rax
 804a57b:	0f be 08             	movsbl (%rax),%ecx
 804a57e:	83 f9 00             	cmp    $0x0,%ecx
 804a581:	0f 84 3b 00 00 00    	je     804a5c2 <expand_args+0xc2>
 804a587:	48 8b 45 f0          	mov    -0x10(%rbp),%rax
 804a58b:	0f be 08             	movsbl (%rax),%ecx
 804a58e:	48 89 cf             	mov    %rcx,%rdi
 804a591:	b8 00 00 00 00       	mov    $0x0,%eax
 804a596:	e8 f7 14 00 00       	callq  804ba92 <is_space>
 804a59b:	85 c0                	test   %eax,%eax
 804a59d:	0f 84 05 00 00 00    	je     804a5a8 <expand_args+0xa8>
 804a5a3:	e9 1a 00 00 00       	jmpq   804a5c2 <expand_args+0xc2>
 804a5a8:	48 8b 45 f0          	mov    -0x10(%rbp),%rax
 804a5ac:	48 89 c1             	mov    %rax,%rcx
 804a5af:	48 ba 01 00 00 00 00 	movabs $0x1,%rdx
 804a5b6:	00 00 00 
 804a5b9:	48 01 d0             	add    %rdx,%rax
 804a5bc:	48 89 45 f0          	mov    %rax,-0x10(%rbp)
 804a5c0:	eb b5                	jmp    804a577 <expand_args+0x77>
 804a5c2:	48 8b 45 f0          	mov    -0x10(%rbp),%rax
 804a5c6:	48 8b 4d e8          	mov    -0x18(%rbp),%rcx
 804a5ca:	48 29 c8             	sub    %rcx,%rax
 804a5cd:	48 89 c1             	mov    %rax,%rcx
 804a5d0:	89 4d d0             	mov    %ecx,-0x30(%rbp)
 804a5d3:	8b 45 d0             	mov    -0x30(%rbp),%eax
 804a5d6:	83 c0 01             	add    $0x1,%eax
 804a5d9:	48 63 c0             	movslq %eax,%rax
 804a5dc:	48 89 c1             	mov    %rax,%rcx
 804a5df:	48 89 cf             	mov    %rcx,%rdi
 804a5e2:	b8 00 00 00 00       	mov    $0x0,%eax
 804a5e7:	e8 6c 19 00 00       	callq  804bf58 <tcc_malloc>
 804a5ec:	48 89 45 d8          	mov    %rax,-0x28(%rbp)
 804a5f0:	8b 45 d0             	mov    -0x30(%rbp),%eax
 804a5f3:	49 89 c2             	mov    %rax,%r10
 804a5f6:	48 8b 45 e8          	mov    -0x18(%rbp),%rax
 804a5fa:	48 89 c6             	mov    %rax,%rsi
 804a5fd:	48 8b 45 d8          	mov    -0x28(%rbp),%rax
 804a601:	48 89 c7             	mov    %rax,%rdi
 804a604:	4c 89 d2             	mov    %r10,%rdx
 804a607:	b8 00 00 00 00       	mov    $0x0,%eax
 804a60c:	e8 5f c6 03 00       	callq  8086c70 <memcpy>
 804a611:	8b 45 d0             	mov    -0x30(%rbp),%eax
 804a614:	48 63 c0             	movslq %eax,%rax
 804a617:	48 8b 4d d8          	mov    -0x28(%rbp),%rcx
 804a61b:	48 89 c2             	mov    %rax,%rdx
 804a61e:	48 01 d1             	add    %rdx,%rcx
 804a621:	b8 00 00 00 00       	mov    $0x0,%eax
 804a626:	88 01                	mov    %al,(%rcx)
 804a628:	48 8b 45 d8          	mov    -0x28(%rbp),%rax
 804a62c:	49 89 c2             	mov    %rax,%r10
 804a62f:	48 8d 45 d4          	lea    -0x2c(%rbp),%rax
 804a633:	48 89 c6             	mov    %rax,%rsi
 804a636:	48 8d 45 e0          	lea    -0x20(%rbp),%rax
 804a63a:	48 89 c7             	mov    %rax,%rdi
 804a63d:	4c 89 d2             	mov    %r10,%rdx
 804a640:	b8 00 00 00 00       	mov    $0x0,%eax
 804a645:	e8 b9 1a 00 00       	callq  804c103 <dynarray_add>
 804a64a:	e9 d5 fe ff ff       	jmpq   804a524 <expand_args+0x24>
 804a64f:	48 8b 45 f8          	mov    -0x8(%rbp),%rax
 804a653:	48 8b 4d e0          	mov    -0x20(%rbp),%rcx
 804a657:	48 89 08             	mov    %rcx,(%rax)
 804a65a:	8b 45 d4             	mov    -0x2c(%rbp),%eax
 804a65d:	e9 00 00 00 00       	jmpq   804a662 <expand_args+0x162>
 804a662:	c9                   	leaveq 
 804a663:	c3                   	retq   

000000000804a664 <exec_other_tcc>:
 804a664:	55                   	push   %rbp
 804a665:	48 89 e5             	mov    %rsp,%rbp
 804a668:	48 81 ec 30 10 00 00 	sub    $0x1030,%rsp
 804a66f:	48 89 7d f8          	mov    %rdi,-0x8(%rbp)
 804a673:	48 89 75 f0          	mov    %rsi,-0x10(%rbp)
 804a677:	48 89 55 e8          	mov    %rdx,-0x18(%rbp)
 804a67b:	48 8b 45 e8          	mov    -0x18(%rbp),%rax
 804a67f:	48 89 c7             	mov    %rax,%rdi
 804a682:	b8 00 00 00 00       	mov    $0x0,%eax
 804a687:	e8 44 d4 03 00       	callq  8087ad0 <__preinit_array_end+0x30>
 804a68c:	e9 05 00 00 00       	jmpq   804a696 <exec_other_tcc+0x32>
 804a691:	e9 09 00 00 00       	jmpq   804a69f <exec_other_tcc+0x3b>
 804a696:	83 f8 40             	cmp    $0x40,%eax
 804a699:	0f 85 0a 00 00 00    	jne    804a6a9 <exec_other_tcc+0x45>
 804a69f:	e9 81 01 00 00       	jmpq   804a825 <exec_other_tcc+0x1c1>
 804a6a4:	e9 09 00 00 00       	jmpq   804a6b2 <exec_other_tcc+0x4e>
 804a6a9:	83 f8 20             	cmp    $0x20,%eax
 804a6ac:	0f 85 4a 01 00 00    	jne    804a7fc <exec_other_tcc+0x198>
 804a6b2:	48 8d 05 46 f0 03 00 	lea    0x3f046(%rip),%rax        # 80896ff <L.148>
 804a6b9:	48 89 85 d8 ef ff ff 	mov    %rax,-0x1028(%rbp)
 804a6c0:	48 8b 45 f0          	mov    -0x10(%rbp),%rax
 804a6c4:	48 8b 08             	mov    (%rax),%rcx
 804a6c7:	49 89 ca             	mov    %rcx,%r10
 804a6ca:	b8 d8 0f 00 00       	mov    $0xfd8,%eax
 804a6cf:	48 89 c6             	mov    %rax,%rsi
 804a6d2:	48 8d 85 e8 ef ff ff 	lea    -0x1018(%rbp),%rax
 804a6d9:	48 89 c7             	mov    %rax,%rdi
 804a6dc:	4c 89 d2             	mov    %r10,%rdx
 804a6df:	b8 00 00 00 00       	mov    $0x0,%eax
 804a6e4:	e8 ba 15 00 00       	callq  804bca3 <pstrcpy>
 804a6e9:	48 8d 85 e8 ef ff ff 	lea    -0x1018(%rbp),%rax
 804a6f0:	48 89 c7             	mov    %rax,%rdi
 804a6f3:	b8 00 00 00 00       	mov    $0x0,%eax
 804a6f8:	e8 3c 17 00 00       	callq  804be39 <tcc_basename>
 804a6fd:	48 89 85 e0 ef ff ff 	mov    %rax,-0x1020(%rbp)
 804a704:	48 8b 85 d8 ef ff ff 	mov    -0x1028(%rbp),%rax
 804a70b:	48 89 c6             	mov    %rax,%rsi
 804a70e:	48 8b 85 e0 ef ff ff 	mov    -0x1020(%rbp),%rax
 804a715:	48 89 c7             	mov    %rax,%rdi
 804a718:	b8 00 00 00 00       	mov    $0x0,%eax
 804a71d:	e8 3e cb 03 00       	callq  8087260 <strcpy>
 804a722:	48 8d 05 db ef 03 00 	lea    0x3efdb(%rip),%rax        # 8089704 <L.149>
 804a729:	48 89 c6             	mov    %rax,%rsi
 804a72c:	48 8b 85 e0 ef ff ff 	mov    -0x1020(%rbp),%rax
 804a733:	48 89 c7             	mov    %rax,%rdi
 804a736:	b8 00 00 00 00       	mov    $0x0,%eax
 804a73b:	e8 80 c8 03 00       	callq  8086fc0 <strcat>
 804a740:	48 8b 45 f0          	mov    -0x10(%rbp),%rax
 804a744:	48 8d 8d e8 ef ff ff 	lea    -0x1018(%rbp),%rcx
 804a74b:	48 89 ce             	mov    %rcx,%rsi
 804a74e:	48 8b 08             	mov    (%rax),%rcx
 804a751:	48 89 cf             	mov    %rcx,%rdi
 804a754:	b8 00 00 00 00       	mov    $0x0,%eax
 804a759:	e8 82 ca 03 00       	callq  80871e0 <strcmp>
 804a75e:	85 c0                	test   %eax,%eax
 804a760:	0f 84 73 00 00 00    	je     804a7d9 <exec_other_tcc+0x175>
 804a766:	48 8b 45 f8          	mov    -0x8(%rbp),%rax
 804a76a:	48 b9 48 01 00 00 00 	movabs $0x148,%rcx
 804a771:	00 00 00 
 804a774:	48 01 c8             	add    %rcx,%rax
 804a777:	8b 08                	mov    (%rax),%ecx
 804a779:	83 f9 00             	cmp    $0x0,%ecx
 804a77c:	0f 8e 35 00 00 00    	jle    804a7b7 <exec_other_tcc+0x153>
 804a782:	48 8b 85 e0 ef ff ff 	mov    -0x1020(%rbp),%rax
 804a789:	48 89 c6             	mov    %rax,%rsi
 804a78c:	48 8d 05 76 ef 03 00 	lea    0x3ef76(%rip),%rax        # 8089709 <L.150>
 804a793:	48 89 c7             	mov    %rax,%rdi
 804a796:	b8 00 00 00 00       	mov    $0x0,%eax
 804a79b:	e8 20 d3 03 00       	callq  8087ac0 <__preinit_array_end+0x20>
 804a7a0:	48 8b 05 79 36 04 00 	mov    0x43679(%rip),%rax        # 808de20 <_GLOBAL_OFFSET_TABLE_+0x1a0>
 804a7a7:	48 8b 00             	mov    (%rax),%rax
 804a7aa:	48 89 c7             	mov    %rax,%rdi
 804a7ad:	b8 00 00 00 00       	mov    $0x0,%eax
 804a7b2:	e8 29 d3 03 00       	callq  8087ae0 <__preinit_array_end+0x40>
 804a7b7:	48 8b 45 f0          	mov    -0x10(%rbp),%rax
 804a7bb:	48 8d 8d e8 ef ff ff 	lea    -0x1018(%rbp),%rcx
 804a7c2:	48 89 08             	mov    %rcx,(%rax)
 804a7c5:	48 8b 45 f0          	mov    -0x10(%rbp),%rax
 804a7c9:	48 89 c6             	mov    %rax,%rsi
 804a7cc:	48 89 cf             	mov    %rcx,%rdi
 804a7cf:	b8 00 00 00 00       	mov    $0x0,%eax
 804a7d4:	e8 17 d3 03 00       	callq  8087af0 <__preinit_array_end+0x50>
 804a7d9:	48 8b 85 e0 ef ff ff 	mov    -0x1020(%rbp),%rax
 804a7e0:	48 89 c6             	mov    %rax,%rsi
 804a7e3:	48 8d 05 30 ef 03 00 	lea    0x3ef30(%rip),%rax        # 808971a <L.151>
 804a7ea:	48 89 c7             	mov    %rax,%rdi
 804a7ed:	b8 00 00 00 00       	mov    $0x0,%eax
 804a7f2:	e8 d0 2e 00 00       	callq  804d6c7 <tcc_error>
 804a7f7:	e9 09 00 00 00       	jmpq   804a805 <exec_other_tcc+0x1a1>
 804a7fc:	83 f8 00             	cmp    $0x0,%eax
 804a7ff:	0f 85 05 00 00 00    	jne    804a80a <exec_other_tcc+0x1a6>
 804a805:	e9 1b 00 00 00       	jmpq   804a825 <exec_other_tcc+0x1c1>
 804a80a:	48 8b 45 e8          	mov    -0x18(%rbp),%rax
 804a80e:	48 89 c6             	mov    %rax,%rsi
 804a811:	48 8d 05 11 ef 03 00 	lea    0x3ef11(%rip),%rax        # 8089729 <L.152>
 804a818:	48 89 c7             	mov    %rax,%rdi
 804a81b:	b8 00 00 00 00       	mov    $0x0,%eax
 804a820:	e8 da 30 00 00       	callq  804d8ff <tcc_warning>
 804a825:	c9                   	leaveq 
 804a826:	c3                   	retq   

000000000804a827 <parse_option_D>:
 804a827:	55                   	push   %rbp
 804a828:	48 89 e5             	mov    %rsp,%rbp
 804a82b:	48 81 ec 20 00 00 00 	sub    $0x20,%rsp
 804a832:	48 89 7d f8          	mov    %rdi,-0x8(%rbp)
 804a836:	48 89 75 f0          	mov    %rsi,-0x10(%rbp)
 804a83a:	48 8b 45 f0          	mov    -0x10(%rbp),%rax
 804a83e:	48 89 c7             	mov    %rax,%rdi
 804a841:	b8 00 00 00 00       	mov    $0x0,%eax
 804a846:	e8 51 18 00 00       	callq  804c09c <tcc_strdup>
 804a84b:	48 89 45 e8          	mov    %rax,-0x18(%rbp)
 804a84f:	b8 3d 00 00 00       	mov    $0x3d,%eax
 804a854:	48 89 c6             	mov    %rax,%rsi
 804a857:	48 8b 45 e8          	mov    -0x18(%rbp),%rax
 804a85b:	48 89 c7             	mov    %rax,%rdi
 804a85e:	b8 00 00 00 00       	mov    $0x0,%eax
 804a863:	e8 d8 c7 03 00       	callq  8087040 <strchr>
 804a868:	48 89 45 e0          	mov    %rax,-0x20(%rbp)
 804a86c:	48 8b 45 e0          	mov    -0x20(%rbp),%rax
 804a870:	85 c0                	test   %eax,%eax
 804a872:	0f 84 1f 00 00 00    	je     804a897 <parse_option_D+0x70>
 804a878:	48 8b 45 e0          	mov    -0x20(%rbp),%rax
 804a87c:	48 89 c1             	mov    %rax,%rcx
 804a87f:	48 ba 01 00 00 00 00 	movabs $0x1,%rdx
 804a886:	00 00 00 
 804a889:	48 01 d0             	add    %rdx,%rax
 804a88c:	48 89 45 e0          	mov    %rax,-0x20(%rbp)
 804a890:	b8 00 00 00 00       	mov    $0x0,%eax
 804a895:	88 01                	mov    %al,(%rcx)
 804a897:	48 8b 45 e0          	mov    -0x20(%rbp),%rax
 804a89b:	49 89 c2             	mov    %rax,%r10
 804a89e:	48 8b 45 e8          	mov    -0x18(%rbp),%rax
 804a8a2:	48 89 c6             	mov    %rax,%rsi
 804a8a5:	48 8b 45 f8          	mov    -0x8(%rbp),%rax
 804a8a9:	48 89 c7             	mov    %rax,%rdi
 804a8ac:	4c 89 d2             	mov    %r10,%rdx
 804a8af:	b8 00 00 00 00       	mov    $0x0,%eax
 804a8b4:	e8 34 3c 00 00       	callq  804e4ed <tcc_define_symbol>
 804a8b9:	48 8b 45 e8          	mov    -0x18(%rbp),%rax
 804a8bd:	48 89 c7             	mov    %rax,%rdi
 804a8c0:	b8 00 00 00 00       	mov    $0x0,%eax
 804a8c5:	e8 6c 16 00 00       	callq  804bf36 <tcc_free>
 804a8ca:	c9                   	leaveq 
 804a8cb:	c3                   	retq   

000000000804a8cc <parse_args>:
 804a8cc:	55                   	push   %rbp
 804a8cd:	48 89 e5             	mov    %rsp,%rbp
 804a8d0:	48 81 ec 60 00 00 00 	sub    $0x60,%rsp
 804a8d7:	48 89 7d f8          	mov    %rdi,-0x8(%rbp)
 804a8db:	48 89 75 f0          	mov    %rsi,-0x10(%rbp)
 804a8df:	48 89 55 e8          	mov    %rdx,-0x18(%rbp)
 804a8e3:	b8 00 00 00 00       	mov    $0x0,%eax
 804a8e8:	89 45 b4             	mov    %eax,-0x4c(%rbp)
 804a8eb:	b8 00 00 00 00       	mov    $0x0,%eax
 804a8f0:	89 45 e4             	mov    %eax,-0x1c(%rbp)
 804a8f3:	48 8d 05 06 38 04 00 	lea    0x43806(%rip),%rax        # 808e100 <linker_arg>
 804a8fa:	48 89 c7             	mov    %rax,%rdi
 804a8fd:	b8 00 00 00 00       	mov    $0x0,%eax
 804a902:	e8 c0 6a 00 00       	callq  80513c7 <cstr_new>
 804a907:	8b 45 e4             	mov    -0x1c(%rbp),%eax
 804a90a:	8b 4d f0             	mov    -0x10(%rbp),%ecx
 804a90d:	39 c8                	cmp    %ecx,%eax
 804a90f:	0f 8d 81 09 00 00    	jge    804b296 <parse_args+0x9ca>
 804a915:	8b 45 e4             	mov    -0x1c(%rbp),%eax
 804a918:	48 89 c1             	mov    %rax,%rcx
 804a91b:	83 c0 01             	add    $0x1,%eax
 804a91e:	89 45 e4             	mov    %eax,-0x1c(%rbp)
 804a921:	48 63 c9             	movslq %ecx,%rcx
 804a924:	48 89 c8             	mov    %rcx,%rax
 804a927:	48 c1 e0 03          	shl    $0x3,%rax
 804a92b:	48 8b 4d e8          	mov    -0x18(%rbp),%rcx
 804a92f:	48 89 c2             	mov    %rax,%rdx
 804a932:	48 01 d1             	add    %rdx,%rcx
 804a935:	48 8b 01             	mov    (%rcx),%rax
 804a938:	48 89 45 b8          	mov    %rax,-0x48(%rbp)
 804a93c:	48 8b 45 b8          	mov    -0x48(%rbp),%rax
 804a940:	0f be 08             	movsbl (%rax),%ecx
 804a943:	83 f9 2d             	cmp    $0x2d,%ecx
 804a946:	0f 85 22 00 00 00    	jne    804a96e <parse_args+0xa2>
 804a94c:	48 8b 45 b8          	mov    -0x48(%rbp),%rax
 804a950:	48 b9 01 00 00 00 00 	movabs $0x1,%rcx
 804a957:	00 00 00 
 804a95a:	48 01 c8             	add    %rcx,%rax
 804a95d:	0f be 08             	movsbl (%rax),%ecx
 804a960:	83 f9 00             	cmp    $0x0,%ecx
 804a963:	0f 84 05 00 00 00    	je     804a96e <parse_args+0xa2>
 804a969:	e9 51 00 00 00       	jmpq   804a9bf <parse_args+0xf3>
 804a96e:	48 8b 45 b8          	mov    -0x48(%rbp),%rax
 804a972:	49 89 c2             	mov    %rax,%r10
 804a975:	48 8d 05 4c 37 04 00 	lea    0x4374c(%rip),%rax        # 808e0c8 <nb_files>
 804a97c:	48 89 c6             	mov    %rax,%rsi
 804a97f:	48 8d 05 3a 37 04 00 	lea    0x4373a(%rip),%rax        # 808e0c0 <files>
 804a986:	48 89 c7             	mov    %rax,%rdi
 804a989:	4c 89 d2             	mov    %r10,%rdx
 804a98c:	b8 00 00 00 00       	mov    $0x0,%eax
 804a991:	e8 6d 17 00 00       	callq  804c103 <dynarray_add>
 804a996:	8b 05 34 37 04 00    	mov    0x43734(%rip),%eax        # 808e0d0 <multiple_files>
 804a99c:	85 c0                	test   %eax,%eax
 804a99e:	0f 84 05 00 00 00    	je     804a9a9 <parse_args+0xdd>
 804a9a4:	e9 11 00 00 00       	jmpq   804a9ba <parse_args+0xee>
 804a9a9:	8b 45 e4             	mov    -0x1c(%rbp),%eax
 804a9ac:	48 89 c1             	mov    %rax,%rcx
 804a9af:	83 c0 ff             	add    $0xffffffff,%eax
 804a9b2:	89 45 e4             	mov    %eax,-0x1c(%rbp)
 804a9b5:	e9 dc 08 00 00       	jmpq   804b296 <parse_args+0x9ca>
 804a9ba:	e9 d2 08 00 00       	jmpq   804b291 <parse_args+0x9c5>
 804a9bf:	48 8d 05 12 ea 03 00 	lea    0x3ea12(%rip),%rax        # 80893d8 <tcc_options>
 804a9c6:	48 89 45 d8          	mov    %rax,-0x28(%rbp)
 804a9ca:	48 8b 45 d8          	mov    -0x28(%rbp),%rax
 804a9ce:	48 8b 08             	mov    (%rax),%rcx
 804a9d1:	48 89 4d c8          	mov    %rcx,-0x38(%rbp)
 804a9d5:	48 8b 45 c8          	mov    -0x38(%rbp),%rax
 804a9d9:	48 89 c1             	mov    %rax,%rcx
 804a9dc:	48 b8 00 00 00 00 00 	movabs $0x0,%rax
 804a9e3:	00 00 00 
 804a9e6:	48 39 c1             	cmp    %rax,%rcx
 804a9e9:	0f 85 1b 00 00 00    	jne    804aa0a <parse_args+0x13e>
 804a9ef:	48 8b 45 b8          	mov    -0x48(%rbp),%rax
 804a9f3:	48 89 c6             	mov    %rax,%rsi
 804a9f6:	48 8d 05 46 ed 03 00 	lea    0x3ed46(%rip),%rax        # 8089743 <L.153>
 804a9fd:	48 89 c7             	mov    %rax,%rdi
 804aa00:	b8 00 00 00 00       	mov    $0x0,%eax
 804aa05:	e8 bd 2c 00 00       	callq  804d6c7 <tcc_error>
 804aa0a:	48 8b 45 b8          	mov    -0x48(%rbp),%rax
 804aa0e:	48 b9 01 00 00 00 00 	movabs $0x1,%rcx
 804aa15:	00 00 00 
 804aa18:	48 01 c8             	add    %rcx,%rax
 804aa1b:	48 89 45 c0          	mov    %rax,-0x40(%rbp)
 804aa1f:	48 8b 45 c8          	mov    -0x38(%rbp),%rax
 804aa23:	0f be 08             	movsbl (%rax),%ecx
 804aa26:	83 f9 00             	cmp    $0x0,%ecx
 804aa29:	0f 85 05 00 00 00    	jne    804aa34 <parse_args+0x168>
 804aa2f:	e9 6a 00 00 00       	jmpq   804aa9e <parse_args+0x1d2>
 804aa34:	48 8b 45 c0          	mov    -0x40(%rbp),%rax
 804aa38:	48 8b 4d c8          	mov    -0x38(%rbp),%rcx
 804aa3c:	0f be 10             	movsbl (%rax),%edx
 804aa3f:	0f be 01             	movsbl (%rcx),%eax
 804aa42:	39 c2                	cmp    %eax,%edx
 804aa44:	0f 84 05 00 00 00    	je     804aa4f <parse_args+0x183>
 804aa4a:	e9 32 00 00 00       	jmpq   804aa81 <parse_args+0x1b5>
 804aa4f:	48 8b 45 c8          	mov    -0x38(%rbp),%rax
 804aa53:	48 89 c1             	mov    %rax,%rcx
 804aa56:	48 ba 01 00 00 00 00 	movabs $0x1,%rdx
 804aa5d:	00 00 00 
 804aa60:	48 01 d0             	add    %rdx,%rax
 804aa63:	48 89 45 c8          	mov    %rax,-0x38(%rbp)
 804aa67:	48 8b 45 c0          	mov    -0x40(%rbp),%rax
 804aa6b:	48 89 c1             	mov    %rax,%rcx
 804aa6e:	48 ba 01 00 00 00 00 	movabs $0x1,%rdx
 804aa75:	00 00 00 
 804aa78:	48 01 d0             	add    %rdx,%rax
 804aa7b:	48 89 45 c0          	mov    %rax,-0x40(%rbp)
 804aa7f:	eb 9e                	jmp    804aa1f <parse_args+0x153>
 804aa81:	48 8b 45 d8          	mov    -0x28(%rbp),%rax
 804aa85:	48 89 c1             	mov    %rax,%rcx
 804aa88:	48 ba 10 00 00 00 00 	movabs $0x10,%rdx
 804aa8f:	00 00 00 
 804aa92:	48 01 d0             	add    %rdx,%rax
 804aa95:	48 89 45 d8          	mov    %rax,-0x28(%rbp)
 804aa99:	e9 2c ff ff ff       	jmpq   804a9ca <parse_args+0xfe>
 804aa9e:	48 8b 45 d8          	mov    -0x28(%rbp),%rax
 804aaa2:	48 b9 0a 00 00 00 00 	movabs $0xa,%rcx
 804aaa9:	00 00 00 
 804aaac:	48 01 c8             	add    %rcx,%rax
 804aaaf:	0f b7 08             	movzwl (%rax),%ecx
 804aab2:	83 e1 01             	and    $0x1,%ecx
 804aab5:	85 c9                	test   %ecx,%ecx
 804aab7:	0f 84 96 00 00 00    	je     804ab53 <parse_args+0x287>
 804aabd:	48 8b 45 c0          	mov    -0x40(%rbp),%rax
 804aac1:	0f be 08             	movsbl (%rax),%ecx
 804aac4:	83 f9 00             	cmp    $0x0,%ecx
 804aac7:	0f 85 24 00 00 00    	jne    804aaf1 <parse_args+0x225>
 804aacd:	48 8b 45 d8          	mov    -0x28(%rbp),%rax
 804aad1:	48 b9 0a 00 00 00 00 	movabs $0xa,%rcx
 804aad8:	00 00 00 
 804aadb:	48 01 c8             	add    %rcx,%rax
 804aade:	0f b7 08             	movzwl (%rax),%ecx
 804aae1:	83 e1 02             	and    $0x2,%ecx
 804aae4:	85 c9                	test   %ecx,%ecx
 804aae6:	0f 85 05 00 00 00    	jne    804aaf1 <parse_args+0x225>
 804aaec:	e9 0d 00 00 00       	jmpq   804aafe <parse_args+0x232>
 804aaf1:	48 8b 45 c0          	mov    -0x40(%rbp),%rax
 804aaf5:	48 89 45 d0          	mov    %rax,-0x30(%rbp)
 804aaf9:	e9 50 00 00 00       	jmpq   804ab4e <parse_args+0x282>
 804aafe:	8b 45 e4             	mov    -0x1c(%rbp),%eax
 804ab01:	8b 4d f0             	mov    -0x10(%rbp),%ecx
 804ab04:	39 c8                	cmp    %ecx,%eax
 804ab06:	0f 8c 1b 00 00 00    	jl     804ab27 <parse_args+0x25b>
 804ab0c:	48 8b 45 b8          	mov    -0x48(%rbp),%rax
 804ab10:	48 89 c6             	mov    %rax,%rsi
 804ab13:	48 8d 05 40 ec 03 00 	lea    0x3ec40(%rip),%rax        # 808975a <L.154>
 804ab1a:	48 89 c7             	mov    %rax,%rdi
 804ab1d:	b8 00 00 00 00       	mov    $0x0,%eax
 804ab22:	e8 a0 2b 00 00       	callq  804d6c7 <tcc_error>
 804ab27:	8b 45 e4             	mov    -0x1c(%rbp),%eax
 804ab2a:	48 89 c1             	mov    %rax,%rcx
 804ab2d:	83 c0 01             	add    $0x1,%eax
 804ab30:	89 45 e4             	mov    %eax,-0x1c(%rbp)
 804ab33:	48 63 c9             	movslq %ecx,%rcx
 804ab36:	48 89 c8             	mov    %rcx,%rax
 804ab39:	48 c1 e0 03          	shl    $0x3,%rax
 804ab3d:	48 8b 4d e8          	mov    -0x18(%rbp),%rcx
 804ab41:	48 89 c2             	mov    %rax,%rdx
 804ab44:	48 01 d1             	add    %rdx,%rcx
 804ab47:	48 8b 01             	mov    (%rcx),%rax
 804ab4a:	48 89 45 d0          	mov    %rax,-0x30(%rbp)
 804ab4e:	e9 23 00 00 00       	jmpq   804ab76 <parse_args+0x2aa>
 804ab53:	48 8b 45 c0          	mov    -0x40(%rbp),%rax
 804ab57:	0f be 08             	movsbl (%rax),%ecx
 804ab5a:	83 f9 00             	cmp    $0x0,%ecx
 804ab5d:	0f 84 0a 00 00 00    	je     804ab6d <parse_args+0x2a1>
 804ab63:	b8 00 00 00 00       	mov    $0x0,%eax
 804ab68:	e9 e7 07 00 00       	jmpq   804b354 <parse_args+0xa88>
 804ab6d:	b8 00 00 00 00       	mov    $0x0,%eax
 804ab72:	48 89 45 d0          	mov    %rax,-0x30(%rbp)
 804ab76:	48 8b 45 d8          	mov    -0x28(%rbp),%rax
 804ab7a:	48 b9 08 00 00 00 00 	movabs $0x8,%rcx
 804ab81:	00 00 00 
 804ab84:	48 01 c8             	add    %rcx,%rax
 804ab87:	0f b7 08             	movzwl (%rax),%ecx
 804ab8a:	e9 05 00 00 00       	jmpq   804ab94 <parse_args+0x2c8>
 804ab8f:	e9 09 00 00 00       	jmpq   804ab9d <parse_args+0x2d1>
 804ab94:	83 f9 00             	cmp    $0x0,%ecx
 804ab97:	0f 85 0f 00 00 00    	jne    804abac <parse_args+0x2e0>
 804ab9d:	b8 00 00 00 00       	mov    $0x0,%eax
 804aba2:	e9 ad 07 00 00       	jmpq   804b354 <parse_args+0xa88>
 804aba7:	e9 09 00 00 00       	jmpq   804abb5 <parse_args+0x2e9>
 804abac:	83 f9 01             	cmp    $0x1,%ecx
 804abaf:	0f 85 3f 00 00 00    	jne    804abf4 <parse_args+0x328>
 804abb5:	48 8b 45 d0          	mov    -0x30(%rbp),%rax
 804abb9:	48 89 c6             	mov    %rax,%rsi
 804abbc:	48 8b 45 f8          	mov    -0x8(%rbp),%rax
 804abc0:	48 89 c7             	mov    %rax,%rdi
 804abc3:	b8 00 00 00 00       	mov    $0x0,%eax
 804abc8:	e8 e8 46 00 00       	callq  804f2b5 <tcc_add_include_path>
 804abcd:	83 f8 00             	cmp    $0x0,%eax
 804abd0:	0f 8d 14 00 00 00    	jge    804abea <parse_args+0x31e>
 804abd6:	48 8d 05 99 eb 03 00 	lea    0x3eb99(%rip),%rax        # 8089776 <L.155>
 804abdd:	48 89 c7             	mov    %rax,%rdi
 804abe0:	b8 00 00 00 00       	mov    $0x0,%eax
 804abe5:	e8 dd 2a 00 00       	callq  804d6c7 <tcc_error>
 804abea:	e9 a2 06 00 00       	jmpq   804b291 <parse_args+0x9c5>
 804abef:	e9 09 00 00 00       	jmpq   804abfd <parse_args+0x331>
 804abf4:	83 f9 02             	cmp    $0x2,%ecx
 804abf7:	0f 85 22 00 00 00    	jne    804ac1f <parse_args+0x353>
 804abfd:	48 8b 45 d0          	mov    -0x30(%rbp),%rax
 804ac01:	48 89 c6             	mov    %rax,%rsi
 804ac04:	48 8b 45 f8          	mov    -0x8(%rbp),%rax
 804ac08:	48 89 c7             	mov    %rax,%rdi
 804ac0b:	b8 00 00 00 00       	mov    $0x0,%eax
 804ac10:	e8 12 fc ff ff       	callq  804a827 <parse_option_D>
 804ac15:	e9 77 06 00 00       	jmpq   804b291 <parse_args+0x9c5>
 804ac1a:	e9 09 00 00 00       	jmpq   804ac28 <parse_args+0x35c>
 804ac1f:	83 f9 03             	cmp    $0x3,%ecx
 804ac22:	0f 85 22 00 00 00    	jne    804ac4a <parse_args+0x37e>
 804ac28:	48 8b 45 d0          	mov    -0x30(%rbp),%rax
 804ac2c:	48 89 c6             	mov    %rax,%rsi
 804ac2f:	48 8b 45 f8          	mov    -0x8(%rbp),%rax
 804ac33:	48 89 c7             	mov    %rax,%rdi
 804ac36:	b8 00 00 00 00       	mov    $0x0,%eax
 804ac3b:	e8 1a 3a 00 00       	callq  804e65a <tcc_undefine_symbol>
 804ac40:	e9 4c 06 00 00       	jmpq   804b291 <parse_args+0x9c5>
 804ac45:	e9 09 00 00 00       	jmpq   804ac53 <parse_args+0x387>
 804ac4a:	83 f9 04             	cmp    $0x4,%ecx
 804ac4d:	0f 85 22 00 00 00    	jne    804ac75 <parse_args+0x3a9>
 804ac53:	48 8b 45 d0          	mov    -0x30(%rbp),%rax
 804ac57:	48 89 c6             	mov    %rax,%rsi
 804ac5a:	48 8b 45 f8          	mov    -0x8(%rbp),%rax
 804ac5e:	48 89 c7             	mov    %rax,%rdi
 804ac61:	b8 00 00 00 00       	mov    $0x0,%eax
 804ac66:	e8 81 4c 00 00       	callq  804f8ec <tcc_add_library_path>
 804ac6b:	e9 21 06 00 00       	jmpq   804b291 <parse_args+0x9c5>
 804ac70:	e9 09 00 00 00       	jmpq   804ac7e <parse_args+0x3b2>
 804ac75:	83 f9 05             	cmp    $0x5,%ecx
 804ac78:	0f 85 22 00 00 00    	jne    804aca0 <parse_args+0x3d4>
 804ac7e:	48 8b 45 d0          	mov    -0x30(%rbp),%rax
 804ac82:	48 89 c6             	mov    %rax,%rsi
 804ac85:	48 8b 45 f8          	mov    -0x8(%rbp),%rax
 804ac89:	48 89 c7             	mov    %rax,%rdi
 804ac8c:	b8 00 00 00 00       	mov    $0x0,%eax
 804ac91:	e8 b0 5e 00 00       	callq  8050b46 <tcc_set_lib_path>
 804ac96:	e9 f6 05 00 00       	jmpq   804b291 <parse_args+0x9c5>
 804ac9b:	e9 09 00 00 00       	jmpq   804aca9 <parse_args+0x3dd>
 804aca0:	83 f9 06             	cmp    $0x6,%ecx
 804aca3:	0f 85 48 00 00 00    	jne    804acf1 <parse_args+0x425>
 804aca9:	48 8b 45 b8          	mov    -0x48(%rbp),%rax
 804acad:	49 89 c2             	mov    %rax,%r10
 804acb0:	48 8d 05 11 34 04 00 	lea    0x43411(%rip),%rax        # 808e0c8 <nb_files>
 804acb7:	48 89 c6             	mov    %rax,%rsi
 804acba:	48 8d 05 ff 33 04 00 	lea    0x433ff(%rip),%rax        # 808e0c0 <files>
 804acc1:	48 89 c7             	mov    %rax,%rdi
 804acc4:	4c 89 d2             	mov    %r10,%rdx
 804acc7:	b8 00 00 00 00       	mov    $0x0,%eax
 804accc:	e8 32 14 00 00       	callq  804c103 <dynarray_add>
 804acd1:	8b 05 f5 33 04 00    	mov    0x433f5(%rip),%eax        # 808e0cc <nb_libraries>
 804acd7:	48 89 c1             	mov    %rax,%rcx
 804acda:	83 c0 01             	add    $0x1,%eax
 804acdd:	4c 8b 1d 44 31 04 00 	mov    0x43144(%rip),%r11        # 808de28 <_GLOBAL_OFFSET_TABLE_+0x1a8>
 804ace4:	41 89 03             	mov    %eax,(%r11)
 804ace7:	e9 a5 05 00 00       	jmpq   804b291 <parse_args+0x9c5>
 804acec:	e9 09 00 00 00       	jmpq   804acfa <parse_args+0x42e>
 804acf1:	83 f9 1d             	cmp    $0x1d,%ecx
 804acf4:	0f 85 2d 00 00 00    	jne    804ad27 <parse_args+0x45b>
 804acfa:	b8 01 00 00 00       	mov    $0x1,%eax
 804acff:	89 45 b4             	mov    %eax,-0x4c(%rbp)
 804ad02:	48 8d 05 84 ea 03 00 	lea    0x3ea84(%rip),%rax        # 808978d <L.156>
 804ad09:	48 89 c6             	mov    %rax,%rsi
 804ad0c:	48 8b 45 f8          	mov    -0x8(%rbp),%rax
 804ad10:	48 89 c7             	mov    %rax,%rdi
 804ad13:	b8 00 00 00 00       	mov    $0x0,%eax
 804ad18:	e8 0a fb ff ff       	callq  804a827 <parse_option_D>
 804ad1d:	e9 6f 05 00 00       	jmpq   804b291 <parse_args+0x9c5>
 804ad22:	e9 09 00 00 00       	jmpq   804ad30 <parse_args+0x464>
 804ad27:	83 f9 07             	cmp    $0x7,%ecx
 804ad2a:	0f 85 19 00 00 00    	jne    804ad49 <parse_args+0x47d>
 804ad30:	b8 01 00 00 00       	mov    $0x1,%eax
 804ad35:	4c 8b 1d f4 30 04 00 	mov    0x430f4(%rip),%r11        # 808de30 <_GLOBAL_OFFSET_TABLE_+0x1b0>
 804ad3c:	41 89 03             	mov    %eax,(%r11)
 804ad3f:	e9 4d 05 00 00       	jmpq   804b291 <parse_args+0x9c5>
 804ad44:	e9 09 00 00 00       	jmpq   804ad52 <parse_args+0x486>
 804ad49:	83 f9 08             	cmp    $0x8,%ecx
 804ad4c:	0f 85 28 00 00 00    	jne    804ad7a <parse_args+0x4ae>
 804ad52:	48 8b 45 d0          	mov    -0x30(%rbp),%rax
 804ad56:	48 89 c7             	mov    %rax,%rdi
 804ad59:	b8 00 00 00 00       	mov    $0x0,%eax
 804ad5e:	e8 6d cd 03 00       	callq  8087ad0 <__preinit_array_end+0x30>
 804ad63:	48 89 c7             	mov    %rax,%rdi
 804ad66:	b8 00 00 00 00       	mov    $0x0,%eax
 804ad6b:	e8 b9 1b 03 00       	callq  807c929 <tcc_set_num_callers>
 804ad70:	e9 1c 05 00 00       	jmpq   804b291 <parse_args+0x9c5>
 804ad75:	e9 09 00 00 00       	jmpq   804ad83 <parse_args+0x4b7>
 804ad7a:	83 f9 0a             	cmp    $0xa,%ecx
 804ad7d:	0f 85 22 00 00 00    	jne    804ada5 <parse_args+0x4d9>
 804ad83:	48 8b 45 f8          	mov    -0x8(%rbp),%rax
 804ad87:	48 b9 4c 01 00 00 00 	movabs $0x14c,%rcx
 804ad8e:	00 00 00 
 804ad91:	48 01 c8             	add    %rcx,%rax
 804ad94:	b9 01 00 00 00       	mov    $0x1,%ecx
 804ad99:	89 08                	mov    %ecx,(%rax)
 804ad9b:	e9 f1 04 00 00       	jmpq   804b291 <parse_args+0x9c5>
 804ada0:	e9 09 00 00 00       	jmpq   804adae <parse_args+0x4e2>
 804ada5:	83 f9 0b             	cmp    $0xb,%ecx
 804ada8:	0f 85 28 00 00 00    	jne    804add6 <parse_args+0x50a>
 804adae:	b8 01 00 00 00       	mov    $0x1,%eax
 804adb3:	4c 8b 1d 7e 30 04 00 	mov    0x4307e(%rip),%r11        # 808de38 <_GLOBAL_OFFSET_TABLE_+0x1b8>
 804adba:	41 89 03             	mov    %eax,(%r11)
 804adbd:	b8 03 00 00 00       	mov    $0x3,%eax
 804adc2:	4c 8b 1d 77 30 04 00 	mov    0x43077(%rip),%r11        # 808de40 <_GLOBAL_OFFSET_TABLE_+0x1c0>
 804adc9:	41 89 03             	mov    %eax,(%r11)
 804adcc:	e9 c0 04 00 00       	jmpq   804b291 <parse_args+0x9c5>
 804add1:	e9 09 00 00 00       	jmpq   804addf <parse_args+0x513>
 804add6:	83 f9 0c             	cmp    $0xc,%ecx
 804add9:	0f 85 22 00 00 00    	jne    804ae01 <parse_args+0x535>
 804addf:	48 8b 45 f8          	mov    -0x8(%rbp),%rax
 804ade3:	48 b9 e4 00 00 00 00 	movabs $0xe4,%rcx
 804adea:	00 00 00 
 804aded:	48 01 c8             	add    %rcx,%rax
 804adf0:	b9 01 00 00 00       	mov    $0x1,%ecx
 804adf5:	89 08                	mov    %ecx,(%rax)
 804adf7:	e9 95 04 00 00       	jmpq   804b291 <parse_args+0x9c5>
 804adfc:	e9 09 00 00 00       	jmpq   804ae0a <parse_args+0x53e>
 804ae01:	83 f9 0d             	cmp    $0xd,%ecx
 804ae04:	0f 85 19 00 00 00    	jne    804ae23 <parse_args+0x557>
 804ae0a:	b8 02 00 00 00       	mov    $0x2,%eax
 804ae0f:	4c 8b 1d 2a 30 04 00 	mov    0x4302a(%rip),%r11        # 808de40 <_GLOBAL_OFFSET_TABLE_+0x1c0>
 804ae16:	41 89 03             	mov    %eax,(%r11)
 804ae19:	e9 73 04 00 00       	jmpq   804b291 <parse_args+0x9c5>
 804ae1e:	e9 09 00 00 00       	jmpq   804ae2c <parse_args+0x560>
 804ae23:	83 f9 0e             	cmp    $0xe,%ecx
 804ae26:	0f 85 22 00 00 00    	jne    804ae4e <parse_args+0x582>
 804ae2c:	48 8b 45 f8          	mov    -0x8(%rbp),%rax
 804ae30:	48 b9 e8 00 00 00 00 	movabs $0xe8,%rcx
 804ae37:	00 00 00 
 804ae3a:	48 01 c8             	add    %rcx,%rax
 804ae3d:	48 8b 4d d0          	mov    -0x30(%rbp),%rcx
 804ae41:	48 89 08             	mov    %rcx,(%rax)
 804ae44:	e9 48 04 00 00       	jmpq   804b291 <parse_args+0x9c5>
 804ae49:	e9 09 00 00 00       	jmpq   804ae57 <parse_args+0x58b>
 804ae4e:	83 f9 15             	cmp    $0x15,%ecx
 804ae51:	0f 85 18 00 00 00    	jne    804ae6f <parse_args+0x5a3>
 804ae57:	48 8b 45 d0          	mov    -0x30(%rbp),%rax
 804ae5b:	4c 8b 1d e6 2f 04 00 	mov    0x42fe6(%rip),%r11        # 808de48 <_GLOBAL_OFFSET_TABLE_+0x1c8>
 804ae62:	49 89 03             	mov    %rax,(%r11)
 804ae65:	e9 27 04 00 00       	jmpq   804b291 <parse_args+0x9c5>
 804ae6a:	e9 09 00 00 00       	jmpq   804ae78 <parse_args+0x5ac>
 804ae6f:	83 f9 0f             	cmp    $0xf,%ecx
 804ae72:	0f 85 34 00 00 00    	jne    804aeac <parse_args+0x5e0>
 804ae78:	b8 01 00 00 00       	mov    $0x1,%eax
 804ae7d:	4c 8b 1d b4 2f 04 00 	mov    0x42fb4(%rip),%r11        # 808de38 <_GLOBAL_OFFSET_TABLE_+0x1b8>
 804ae84:	41 89 03             	mov    %eax,(%r11)
 804ae87:	48 8b 45 d0          	mov    -0x30(%rbp),%rax
 804ae8b:	48 89 c7             	mov    %rax,%rdi
 804ae8e:	b8 00 00 00 00       	mov    $0x0,%eax
 804ae93:	e8 04 12 00 00       	callq  804c09c <tcc_strdup>
 804ae98:	4c 8b 1d b1 2f 04 00 	mov    0x42fb1(%rip),%r11        # 808de50 <_GLOBAL_OFFSET_TABLE_+0x1d0>
 804ae9f:	49 89 03             	mov    %rax,(%r11)
 804aea2:	e9 ea 03 00 00       	jmpq   804b291 <parse_args+0x9c5>
 804aea7:	e9 09 00 00 00       	jmpq   804aeb5 <parse_args+0x5e9>
 804aeac:	83 f9 10             	cmp    $0x10,%ecx
 804aeaf:	0f 85 28 00 00 00    	jne    804aedd <parse_args+0x611>
 804aeb5:	b8 01 00 00 00       	mov    $0x1,%eax
 804aeba:	4c 8b 1d 97 2f 04 00 	mov    0x42f97(%rip),%r11        # 808de58 <_GLOBAL_OFFSET_TABLE_+0x1d8>
 804aec1:	41 89 03             	mov    %eax,(%r11)
 804aec4:	b8 03 00 00 00       	mov    $0x3,%eax
 804aec9:	4c 8b 1d 70 2f 04 00 	mov    0x42f70(%rip),%r11        # 808de40 <_GLOBAL_OFFSET_TABLE_+0x1c0>
 804aed0:	41 89 03             	mov    %eax,(%r11)
 804aed3:	e9 b9 03 00 00       	jmpq   804b291 <parse_args+0x9c5>
 804aed8:	e9 09 00 00 00       	jmpq   804aee6 <parse_args+0x61a>
 804aedd:	83 f9 17             	cmp    $0x17,%ecx
 804aee0:	0f 85 22 00 00 00    	jne    804af08 <parse_args+0x63c>
 804aee6:	48 8b 45 d0          	mov    -0x30(%rbp),%rax
 804aeea:	48 89 c6             	mov    %rax,%rsi
 804aeed:	48 8b 45 f8          	mov    -0x8(%rbp),%rax
 804aef1:	48 89 c7             	mov    %rax,%rdi
 804aef4:	b8 00 00 00 00       	mov    $0x0,%eax
 804aef9:	e8 1c 44 00 00       	callq  804f31a <tcc_add_sysinclude_path>
 804aefe:	e9 8e 03 00 00       	jmpq   804b291 <parse_args+0x9c5>
 804af03:	e9 09 00 00 00       	jmpq   804af11 <parse_args+0x645>
 804af08:	83 f9 18             	cmp    $0x18,%ecx
 804af0b:	0f 85 22 00 00 00    	jne    804af33 <parse_args+0x667>
 804af11:	48 8b 45 f8          	mov    -0x8(%rbp),%rax
 804af15:	48 b9 d8 00 00 00 00 	movabs $0xd8,%rcx
 804af1c:	00 00 00 
 804af1f:	48 01 c8             	add    %rcx,%rax
 804af22:	b9 01 00 00 00       	mov    $0x1,%ecx
 804af27:	89 08                	mov    %ecx,(%rax)
 804af29:	e9 63 03 00 00       	jmpq   804b291 <parse_args+0x9c5>
 804af2e:	e9 09 00 00 00       	jmpq   804af3c <parse_args+0x670>
 804af33:	83 f9 19             	cmp    $0x19,%ecx
 804af36:	0f 85 22 00 00 00    	jne    804af5e <parse_args+0x692>
 804af3c:	48 8b 45 f8          	mov    -0x8(%rbp),%rax
 804af40:	48 b9 dc 00 00 00 00 	movabs $0xdc,%rcx
 804af47:	00 00 00 
 804af4a:	48 01 c8             	add    %rcx,%rax
 804af4d:	b9 01 00 00 00       	mov    $0x1,%ecx
 804af52:	89 08                	mov    %ecx,(%rax)
 804af54:	e9 38 03 00 00       	jmpq   804b291 <parse_args+0x9c5>
 804af59:	e9 09 00 00 00       	jmpq   804af67 <parse_args+0x69b>
 804af5e:	83 f9 1a             	cmp    $0x1a,%ecx
 804af61:	0f 85 19 00 00 00    	jne    804af80 <parse_args+0x6b4>
 804af67:	b8 01 00 00 00       	mov    $0x1,%eax
 804af6c:	4c 8b 1d ed 2e 04 00 	mov    0x42eed(%rip),%r11        # 808de60 <_GLOBAL_OFFSET_TABLE_+0x1e0>
 804af73:	41 89 03             	mov    %eax,(%r11)
 804af76:	e9 16 03 00 00       	jmpq   804b291 <parse_args+0x9c5>
 804af7b:	e9 09 00 00 00       	jmpq   804af89 <parse_args+0x6bd>
 804af80:	83 f9 1e             	cmp    $0x1e,%ecx
 804af83:	0f 85 70 00 00 00    	jne    804aff9 <parse_args+0x72d>
 804af89:	48 8b 45 d0          	mov    -0x30(%rbp),%rax
 804af8d:	48 89 c6             	mov    %rax,%rsi
 804af90:	48 8d 45 a8          	lea    -0x58(%rbp),%rax
 804af94:	48 89 c7             	mov    %rax,%rdi
 804af97:	b8 00 00 00 00       	mov    $0x0,%eax
 804af9c:	e8 5f f5 ff ff       	callq  804a500 <expand_args>
 804afa1:	89 45 b0             	mov    %eax,-0x50(%rbp)
 804afa4:	8b 45 b0             	mov    -0x50(%rbp),%eax
 804afa7:	83 f8 00             	cmp    $0x0,%eax
 804afaa:	0f 8e 21 00 00 00    	jle    804afd1 <parse_args+0x705>
 804afb0:	48 8b 45 a8          	mov    -0x58(%rbp),%rax
 804afb4:	49 89 c2             	mov    %rax,%r10
 804afb7:	8b 45 b0             	mov    -0x50(%rbp),%eax
 804afba:	48 89 c6             	mov    %rax,%rsi
 804afbd:	48 8b 45 f8          	mov    -0x8(%rbp),%rax
 804afc1:	48 89 c7             	mov    %rax,%rdi
 804afc4:	4c 89 d2             	mov    %r10,%rdx
 804afc7:	b8 00 00 00 00       	mov    $0x0,%eax
 804afcc:	e8 fb f8 ff ff       	callq  804a8cc <parse_args>
 804afd1:	b8 00 00 00 00       	mov    $0x0,%eax
 804afd6:	4c 8b 1d 5b 2e 04 00 	mov    0x42e5b(%rip),%r11        # 808de38 <_GLOBAL_OFFSET_TABLE_+0x1b8>
 804afdd:	41 89 03             	mov    %eax,(%r11)
 804afe0:	b8 00 00 00 00       	mov    $0x0,%eax
 804afe5:	4c 8b 1d 54 2e 04 00 	mov    0x42e54(%rip),%r11        # 808de40 <_GLOBAL_OFFSET_TABLE_+0x1c0>
 804afec:	41 89 03             	mov    %eax,(%r11)
 804afef:	e9 9d 02 00 00       	jmpq   804b291 <parse_args+0x9c5>
 804aff4:	e9 09 00 00 00       	jmpq   804b002 <parse_args+0x736>
 804aff9:	83 f9 1f             	cmp    $0x1f,%ecx
 804affc:	0f 85 46 00 00 00    	jne    804b048 <parse_args+0x77c>
 804b002:	48 8b 45 f8          	mov    -0x8(%rbp),%rax
 804b006:	48 b9 48 01 00 00 00 	movabs $0x148,%rcx
 804b00d:	00 00 00 
 804b010:	48 01 c8             	add    %rcx,%rax
 804b013:	8b 08                	mov    (%rax),%ecx
 804b015:	83 c1 01             	add    $0x1,%ecx
 804b018:	89 08                	mov    %ecx,(%rax)
 804b01a:	48 8b 45 d0          	mov    -0x30(%rbp),%rax
 804b01e:	48 89 c1             	mov    %rax,%rcx
 804b021:	48 ba 01 00 00 00 00 	movabs $0x1,%rdx
 804b028:	00 00 00 
 804b02b:	48 01 d0             	add    %rdx,%rax
 804b02e:	48 89 45 d0          	mov    %rax,-0x30(%rbp)
 804b032:	0f be 01             	movsbl (%rcx),%eax
 804b035:	83 f8 76             	cmp    $0x76,%eax
 804b038:	0f 84 c4 ff ff ff    	je     804b002 <parse_args+0x736>
 804b03e:	e9 4e 02 00 00       	jmpq   804b291 <parse_args+0x9c5>
 804b043:	e9 09 00 00 00       	jmpq   804b051 <parse_args+0x785>
 804b048:	83 f9 16             	cmp    $0x16,%ecx
 804b04b:	0f 85 56 00 00 00    	jne    804b0a7 <parse_args+0x7db>
 804b051:	b8 01 00 00 00       	mov    $0x1,%eax
 804b056:	49 89 c2             	mov    %rax,%r10
 804b059:	48 8b 45 d0          	mov    -0x30(%rbp),%rax
 804b05d:	48 89 c6             	mov    %rax,%rsi
 804b060:	48 8b 45 f8          	mov    -0x8(%rbp),%rax
 804b064:	48 89 c7             	mov    %rax,%rdi
 804b067:	4c 89 d2             	mov    %r10,%rdx
 804b06a:	b8 00 00 00 00       	mov    $0x0,%eax
 804b06f:	e8 ac 51 00 00       	callq  8050220 <tcc_set_flag>
 804b074:	83 f8 00             	cmp    $0x0,%eax
 804b077:	0f 8d 20 00 00 00    	jge    804b09d <parse_args+0x7d1>
 804b07d:	48 8b 45 f8          	mov    -0x8(%rbp),%rax
 804b081:	48 b9 38 01 00 00 00 	movabs $0x138,%rcx
 804b088:	00 00 00 
 804b08b:	48 01 c8             	add    %rcx,%rax
 804b08e:	8b 08                	mov    (%rax),%ecx
 804b090:	85 c9                	test   %ecx,%ecx
 804b092:	0f 84 05 00 00 00    	je     804b09d <parse_args+0x7d1>
 804b098:	e9 d4 01 00 00       	jmpq   804b271 <parse_args+0x9a5>
 804b09d:	e9 ef 01 00 00       	jmpq   804b291 <parse_args+0x9c5>
 804b0a2:	e9 09 00 00 00       	jmpq   804b0b0 <parse_args+0x7e4>
 804b0a7:	83 f9 13             	cmp    $0x13,%ecx
 804b0aa:	0f 85 56 00 00 00    	jne    804b106 <parse_args+0x83a>
 804b0b0:	b8 01 00 00 00       	mov    $0x1,%eax
 804b0b5:	49 89 c2             	mov    %rax,%r10
 804b0b8:	48 8b 45 d0          	mov    -0x30(%rbp),%rax
 804b0bc:	48 89 c6             	mov    %rax,%rsi
 804b0bf:	48 8b 45 f8          	mov    -0x8(%rbp),%rax
 804b0c3:	48 89 c7             	mov    %rax,%rdi
 804b0c6:	4c 89 d2             	mov    %r10,%rdx
 804b0c9:	b8 00 00 00 00       	mov    $0x0,%eax
 804b0ce:	e8 3c 50 00 00       	callq  805010f <tcc_set_warning>
 804b0d3:	83 f8 00             	cmp    $0x0,%eax
 804b0d6:	0f 8d 20 00 00 00    	jge    804b0fc <parse_args+0x830>
 804b0dc:	48 8b 45 f8          	mov    -0x8(%rbp),%rax
 804b0e0:	48 b9 38 01 00 00 00 	movabs $0x138,%rcx
 804b0e7:	00 00 00 
 804b0ea:	48 01 c8             	add    %rcx,%rax
 804b0ed:	8b 08                	mov    (%rax),%ecx
 804b0ef:	85 c9                	test   %ecx,%ecx
 804b0f1:	0f 84 05 00 00 00    	je     804b0fc <parse_args+0x830>
 804b0f7:	e9 75 01 00 00       	jmpq   804b271 <parse_args+0x9a5>
 804b0fc:	e9 90 01 00 00       	jmpq   804b291 <parse_args+0x9c5>
 804b101:	e9 09 00 00 00       	jmpq   804b10f <parse_args+0x843>
 804b106:	83 f9 20             	cmp    $0x20,%ecx
 804b109:	0f 85 22 00 00 00    	jne    804b131 <parse_args+0x865>
 804b10f:	48 8b 45 f8          	mov    -0x8(%rbp),%rax
 804b113:	48 b9 40 01 00 00 00 	movabs $0x140,%rcx
 804b11a:	00 00 00 
 804b11d:	48 01 c8             	add    %rcx,%rax
 804b120:	b9 01 00 00 00       	mov    $0x1,%ecx
 804b125:	89 08                	mov    %ecx,(%rax)
 804b127:	e9 65 01 00 00       	jmpq   804b291 <parse_args+0x9c5>
 804b12c:	e9 09 00 00 00       	jmpq   804b13a <parse_args+0x86e>
 804b131:	83 f9 1b             	cmp    $0x1b,%ecx
 804b134:	0f 85 22 00 00 00    	jne    804b15c <parse_args+0x890>
 804b13a:	48 8b 45 f8          	mov    -0x8(%rbp),%rax
 804b13e:	48 b9 f8 00 00 00 00 	movabs $0xf8,%rcx
 804b145:	00 00 00 
 804b148:	48 01 c8             	add    %rcx,%rax
 804b14b:	b9 01 00 00 00       	mov    $0x1,%ecx
 804b150:	89 08                	mov    %ecx,(%rax)
 804b152:	e9 3a 01 00 00       	jmpq   804b291 <parse_args+0x9c5>
 804b157:	e9 09 00 00 00       	jmpq   804b165 <parse_args+0x899>
 804b15c:	83 f9 12             	cmp    $0x12,%ecx
 804b15f:	0f 85 7e 00 00 00    	jne    804b1e3 <parse_args+0x917>
 804b165:	8b 05 95 2f 04 00    	mov    0x42f95(%rip),%eax        # 808e100 <linker_arg>
 804b16b:	85 c0                	test   %eax,%eax
 804b16d:	0f 84 2f 00 00 00    	je     804b1a2 <parse_args+0x8d6>
 804b173:	8b 05 87 2f 04 00    	mov    0x42f87(%rip),%eax        # 808e100 <linker_arg>
 804b179:	83 c0 ff             	add    $0xffffffff,%eax
 804b17c:	4c 8b 1d e5 2c 04 00 	mov    0x42ce5(%rip),%r11        # 808de68 <_GLOBAL_OFFSET_TABLE_+0x1e8>
 804b183:	41 89 03             	mov    %eax,(%r11)
 804b186:	b8 2c 00 00 00       	mov    $0x2c,%eax
 804b18b:	48 89 c6             	mov    %rax,%rsi
 804b18e:	48 8d 05 6b 2f 04 00 	lea    0x42f6b(%rip),%rax        # 808e100 <linker_arg>
 804b195:	48 89 c7             	mov    %rax,%rdi
 804b198:	b8 00 00 00 00       	mov    $0x0,%eax
 804b19d:	e8 ab 60 00 00       	callq  805124d <cstr_ccat>
 804b1a2:	48 8b 45 d0          	mov    -0x30(%rbp),%rax
 804b1a6:	48 89 c6             	mov    %rax,%rsi
 804b1a9:	48 8d 05 50 2f 04 00 	lea    0x42f50(%rip),%rax        # 808e100 <linker_arg>
 804b1b0:	48 89 c7             	mov    %rax,%rdi
 804b1b3:	b8 00 00 00 00       	mov    $0x0,%eax
 804b1b8:	e8 18 61 00 00       	callq  80512d5 <cstr_cat>
 804b1bd:	b8 00 00 00 00       	mov    $0x0,%eax
 804b1c2:	48 89 c6             	mov    %rax,%rsi
 804b1c5:	48 8d 05 34 2f 04 00 	lea    0x42f34(%rip),%rax        # 808e100 <linker_arg>
 804b1cc:	48 89 c7             	mov    %rax,%rdi
 804b1cf:	b8 00 00 00 00       	mov    $0x0,%eax
 804b1d4:	e8 74 60 00 00       	callq  805124d <cstr_ccat>
 804b1d9:	e9 b3 00 00 00       	jmpq   804b291 <parse_args+0x9c5>
 804b1de:	e9 09 00 00 00       	jmpq   804b1ec <parse_args+0x920>
 804b1e3:	83 f9 22             	cmp    $0x22,%ecx
 804b1e6:	0f 85 19 00 00 00    	jne    804b205 <parse_args+0x939>
 804b1ec:	b8 04 00 00 00       	mov    $0x4,%eax
 804b1f1:	4c 8b 1d 48 2c 04 00 	mov    0x42c48(%rip),%r11        # 808de40 <_GLOBAL_OFFSET_TABLE_+0x1c0>
 804b1f8:	41 89 03             	mov    %eax,(%r11)
 804b1fb:	e9 91 00 00 00       	jmpq   804b291 <parse_args+0x9c5>
 804b200:	e9 09 00 00 00       	jmpq   804b20e <parse_args+0x942>
 804b205:	83 f9 23             	cmp    $0x23,%ecx
 804b208:	0f 85 19 00 00 00    	jne    804b227 <parse_args+0x95b>
 804b20e:	b8 01 00 00 00       	mov    $0x1,%eax
 804b213:	4c 8b 1d 56 2c 04 00 	mov    0x42c56(%rip),%r11        # 808de70 <_GLOBAL_OFFSET_TABLE_+0x1f0>
 804b21a:	41 89 03             	mov    %eax,(%r11)
 804b21d:	e9 6f 00 00 00       	jmpq   804b291 <parse_args+0x9c5>
 804b222:	e9 09 00 00 00       	jmpq   804b230 <parse_args+0x964>
 804b227:	83 f9 24             	cmp    $0x24,%ecx
 804b22a:	0f 85 18 00 00 00    	jne    804b248 <parse_args+0x97c>
 804b230:	48 8b 45 d0          	mov    -0x30(%rbp),%rax
 804b234:	4c 8b 1d 3d 2c 04 00 	mov    0x42c3d(%rip),%r11        # 808de78 <_GLOBAL_OFFSET_TABLE_+0x1f8>
 804b23b:	49 89 03             	mov    %rax,(%r11)
 804b23e:	e9 4e 00 00 00       	jmpq   804b291 <parse_args+0x9c5>
 804b243:	e9 09 00 00 00       	jmpq   804b251 <parse_args+0x985>
 804b248:	83 f9 25             	cmp    $0x25,%ecx
 804b24b:	0f 85 05 00 00 00    	jne    804b256 <parse_args+0x98a>
 804b251:	e9 3b 00 00 00       	jmpq   804b291 <parse_args+0x9c5>
 804b256:	48 8b 45 f8          	mov    -0x8(%rbp),%rax
 804b25a:	48 b9 38 01 00 00 00 	movabs $0x138,%rcx
 804b261:	00 00 00 
 804b264:	48 01 c8             	add    %rcx,%rax
 804b267:	8b 08                	mov    (%rax),%ecx
 804b269:	85 c9                	test   %ecx,%ecx
 804b26b:	0f 84 1b 00 00 00    	je     804b28c <parse_args+0x9c0>
 804b271:	48 8b 45 b8          	mov    -0x48(%rbp),%rax
 804b275:	48 89 c6             	mov    %rax,%rsi
 804b278:	48 8d 05 19 e5 03 00 	lea    0x3e519(%rip),%rax        # 8089798 <L.157>
 804b27f:	48 89 c7             	mov    %rax,%rdi
 804b282:	b8 00 00 00 00       	mov    $0x0,%eax
 804b287:	e8 73 26 00 00       	callq  804d8ff <tcc_warning>
 804b28c:	e9 00 00 00 00       	jmpq   804b291 <parse_args+0x9c5>
 804b291:	e9 71 f6 ff ff       	jmpq   804a907 <parse_args+0x3b>
 804b296:	b8 01 00 00 00       	mov    $0x1,%eax
 804b29b:	49 89 c2             	mov    %rax,%r10
 804b29e:	48 8b 05 63 2e 04 00 	mov    0x42e63(%rip),%rax        # 808e108 <linker_arg+0x8>
 804b2a5:	48 89 c6             	mov    %rax,%rsi
 804b2a8:	48 8b 45 f8          	mov    -0x8(%rbp),%rax
 804b2ac:	48 89 c7             	mov    %rax,%rdi
 804b2af:	4c 89 d2             	mov    %r10,%rdx
 804b2b2:	b8 00 00 00 00       	mov    $0x0,%eax
 804b2b7:	e8 e0 51 00 00       	callq  805049c <tcc_set_linker>
 804b2bc:	48 89 45 c0          	mov    %rax,-0x40(%rbp)
 804b2c0:	48 b9 00 00 00 00 00 	movabs $0x0,%rcx
 804b2c7:	00 00 00 
 804b2ca:	48 89 c2             	mov    %rax,%rdx
 804b2cd:	48 39 d1             	cmp    %rdx,%rcx
 804b2d0:	0f 84 1b 00 00 00    	je     804b2f1 <parse_args+0xa25>
 804b2d6:	48 8b 45 c0          	mov    -0x40(%rbp),%rax
 804b2da:	48 89 c6             	mov    %rax,%rsi
 804b2dd:	48 8d 05 cc e4 03 00 	lea    0x3e4cc(%rip),%rax        # 80897b0 <L.158>
 804b2e4:	48 89 c7             	mov    %rax,%rdi
 804b2e7:	b8 00 00 00 00       	mov    $0x0,%eax
 804b2ec:	e8 d6 23 00 00       	callq  804d6c7 <tcc_error>
 804b2f1:	8b 45 b4             	mov    -0x4c(%rbp),%eax
 804b2f4:	85 c0                	test   %eax,%eax
 804b2f6:	0f 84 50 00 00 00    	je     804b34c <parse_args+0xa80>
 804b2fc:	8b 05 d6 2d 04 00    	mov    0x42dd6(%rip),%eax        # 808e0d8 <output_type>
 804b302:	83 f8 03             	cmp    $0x3,%eax
 804b305:	0f 84 41 00 00 00    	je     804b34c <parse_args+0xa80>
 804b30b:	48 8d 05 bd e4 03 00 	lea    0x3e4bd(%rip),%rax        # 80897cf <L.159>
 804b312:	49 89 c2             	mov    %rax,%r10
 804b315:	48 8d 05 ac 2d 04 00 	lea    0x42dac(%rip),%rax        # 808e0c8 <nb_files>
 804b31c:	48 89 c6             	mov    %rax,%rsi
 804b31f:	48 8d 05 9a 2d 04 00 	lea    0x42d9a(%rip),%rax        # 808e0c0 <files>
 804b326:	48 89 c7             	mov    %rax,%rdi
 804b329:	4c 89 d2             	mov    %r10,%rdx
 804b32c:	b8 00 00 00 00       	mov    $0x0,%eax
 804b331:	e8 cd 0d 00 00       	callq  804c103 <dynarray_add>
 804b336:	8b 05 90 2d 04 00    	mov    0x42d90(%rip),%eax        # 808e0cc <nb_libraries>
 804b33c:	48 89 c1             	mov    %rax,%rcx
 804b33f:	83 c0 01             	add    $0x1,%eax
 804b342:	4c 8b 1d df 2a 04 00 	mov    0x42adf(%rip),%r11        # 808de28 <_GLOBAL_OFFSET_TABLE_+0x1a8>
 804b349:	41 89 03             	mov    %eax,(%r11)
 804b34c:	8b 45 e4             	mov    -0x1c(%rbp),%eax
 804b34f:	e9 00 00 00 00       	jmpq   804b354 <parse_args+0xa88>
 804b354:	c9                   	leaveq 
 804b355:	c3                   	retq   

000000000804b356 <main>:
 804b356:	55                   	push   %rbp
 804b357:	48 89 e5             	mov    %rsp,%rbp
 804b35a:	48 81 ec 60 00 00 00 	sub    $0x60,%rsp
 804b361:	48 89 7d f8          	mov    %rdi,-0x8(%rbp)
 804b365:	48 89 75 f0          	mov    %rsi,-0x10(%rbp)
 804b369:	48 b8 00 00 00 00 00 	movabs $0x0,%rax
 804b370:	00 00 00 
 804b373:	48 89 45 c8          	mov    %rax,-0x38(%rbp)
 804b377:	b8 00 00 00 00       	mov    $0x0,%eax
 804b37c:	48 89 45 c0          	mov    %rax,-0x40(%rbp)
 804b380:	b8 00 00 00 00       	mov    $0x0,%eax
 804b385:	e8 73 34 00 00       	callq  804e7fd <tcc_new>
 804b38a:	48 89 45 e0          	mov    %rax,-0x20(%rbp)
 804b38e:	b8 01 00 00 00       	mov    $0x1,%eax
 804b393:	4c 8b 1d a6 2a 04 00 	mov    0x42aa6(%rip),%r11        # 808de40 <_GLOBAL_OFFSET_TABLE_+0x1c0>
 804b39a:	41 89 03             	mov    %eax,(%r11)
 804b39d:	b8 00 00 00 00       	mov    $0x0,%eax
 804b3a2:	4c 8b 1d a7 2a 04 00 	mov    0x42aa7(%rip),%r11        # 808de50 <_GLOBAL_OFFSET_TABLE_+0x1d0>
 804b3a9:	49 89 03             	mov    %rax,(%r11)
 804b3ac:	b8 01 00 00 00       	mov    $0x1,%eax
 804b3b1:	4c 8b 1d 80 2a 04 00 	mov    0x42a80(%rip),%r11        # 808de38 <_GLOBAL_OFFSET_TABLE_+0x1b8>
 804b3b8:	41 89 03             	mov    %eax,(%r11)
 804b3bb:	b8 00 00 00 00       	mov    $0x0,%eax
 804b3c0:	4c 8b 1d b9 2a 04 00 	mov    0x42ab9(%rip),%r11        # 808de80 <_GLOBAL_OFFSET_TABLE_+0x200>
 804b3c7:	49 89 03             	mov    %rax,(%r11)
 804b3ca:	b8 00 00 00 00       	mov    $0x0,%eax
 804b3cf:	4c 8b 1d b2 2a 04 00 	mov    0x42ab2(%rip),%r11        # 808de88 <_GLOBAL_OFFSET_TABLE_+0x208>
 804b3d6:	41 89 03             	mov    %eax,(%r11)
 804b3d9:	b8 00 00 00 00       	mov    $0x0,%eax
 804b3de:	4c 8b 1d 43 2a 04 00 	mov    0x42a43(%rip),%r11        # 808de28 <_GLOBAL_OFFSET_TABLE_+0x1a8>
 804b3e5:	41 89 03             	mov    %eax,(%r11)
 804b3e8:	b8 00 00 00 00       	mov    $0x0,%eax
 804b3ed:	4c 8b 1d 64 2a 04 00 	mov    0x42a64(%rip),%r11        # 808de58 <_GLOBAL_OFFSET_TABLE_+0x1d8>
 804b3f4:	41 89 03             	mov    %eax,(%r11)
 804b3f7:	b8 00 00 00 00       	mov    $0x0,%eax
 804b3fc:	4c 8b 1d 5d 2a 04 00 	mov    0x42a5d(%rip),%r11        # 808de60 <_GLOBAL_OFFSET_TABLE_+0x1e0>
 804b403:	41 89 03             	mov    %eax,(%r11)
 804b406:	b8 00 00 00 00       	mov    $0x0,%eax
 804b40b:	4c 8b 1d 36 2a 04 00 	mov    0x42a36(%rip),%r11        # 808de48 <_GLOBAL_OFFSET_TABLE_+0x1c8>
 804b412:	49 89 03             	mov    %rax,(%r11)
 804b415:	b8 00 00 00 00       	mov    $0x0,%eax
 804b41a:	89 45 d8             	mov    %eax,-0x28(%rbp)
 804b41d:	8b 45 f8             	mov    -0x8(%rbp),%eax
 804b420:	83 e8 01             	sub    $0x1,%eax
 804b423:	48 8b 4d f0          	mov    -0x10(%rbp),%rcx
 804b427:	48 ba 08 00 00 00 00 	movabs $0x8,%rdx
 804b42e:	00 00 00 
 804b431:	48 01 d1             	add    %rdx,%rcx
 804b434:	49 89 ca             	mov    %rcx,%r10
 804b437:	48 89 c6             	mov    %rax,%rsi
 804b43a:	48 8b 45 e0          	mov    -0x20(%rbp),%rax
 804b43e:	48 89 c7             	mov    %rax,%rdi
 804b441:	4c 89 d2             	mov    %r10,%rdx
 804b444:	b8 00 00 00 00       	mov    $0x0,%eax
 804b449:	e8 7e f4 ff ff       	callq  804a8cc <parse_args>
 804b44e:	89 45 d4             	mov    %eax,-0x2c(%rbp)
 804b451:	48 8b 05 a0 2c 04 00 	mov    0x42ca0(%rip),%rax        # 808e0f8 <m_option>
 804b458:	85 c0                	test   %eax,%eax
 804b45a:	0f 84 25 00 00 00    	je     804b485 <main+0x12f>
 804b460:	48 8b 05 91 2c 04 00 	mov    0x42c91(%rip),%rax        # 808e0f8 <m_option>
 804b467:	49 89 c2             	mov    %rax,%r10
 804b46a:	48 8b 45 f0          	mov    -0x10(%rbp),%rax
 804b46e:	48 89 c6             	mov    %rax,%rsi
 804b471:	48 8b 45 e0          	mov    -0x20(%rbp),%rax
 804b475:	48 89 c7             	mov    %rax,%rdi
 804b478:	4c 89 d2             	mov    %r10,%rdx
 804b47b:	b8 00 00 00 00       	mov    $0x0,%eax
 804b480:	e8 df f1 ff ff       	callq  804a664 <exec_other_tcc>
 804b485:	8b 05 49 2c 04 00    	mov    0x42c49(%rip),%eax        # 808e0d4 <print_search_dirs>
 804b48b:	85 c0                	test   %eax,%eax
 804b48d:	0f 84 35 00 00 00    	je     804b4c8 <main+0x172>
 804b493:	48 8b 45 e0          	mov    -0x20(%rbp),%rax
 804b497:	48 b9 50 01 00 00 00 	movabs $0x150,%rcx
 804b49e:	00 00 00 
 804b4a1:	48 01 c8             	add    %rcx,%rax
 804b4a4:	48 8b 08             	mov    (%rax),%rcx
 804b4a7:	48 89 ce             	mov    %rcx,%rsi
 804b4aa:	48 8d 05 28 e3 03 00 	lea    0x3e328(%rip),%rax        # 80897d9 <L.160>
 804b4b1:	48 89 c7             	mov    %rax,%rdi
 804b4b4:	b8 00 00 00 00       	mov    $0x0,%eax
 804b4b9:	e8 02 c6 03 00       	callq  8087ac0 <__preinit_array_end+0x20>
 804b4be:	b8 00 00 00 00       	mov    $0x0,%eax
 804b4c3:	e9 c8 05 00 00       	jmpq   804ba90 <main+0x73a>
 804b4c8:	48 8b 45 e0          	mov    -0x20(%rbp),%rax
 804b4cc:	48 b9 48 01 00 00 00 	movabs $0x148,%rcx
 804b4d3:	00 00 00 
 804b4d6:	48 01 c8             	add    %rcx,%rax
 804b4d9:	8b 08                	mov    (%rax),%ecx
 804b4db:	85 c9                	test   %ecx,%ecx
 804b4dd:	0f 84 1e 00 00 00    	je     804b501 <main+0x1ab>
 804b4e3:	48 8d 05 0d e3 03 00 	lea    0x3e30d(%rip),%rax        # 80897f7 <L.162>
 804b4ea:	48 89 c6             	mov    %rax,%rsi
 804b4ed:	48 8d 05 f3 e2 03 00 	lea    0x3e2f3(%rip),%rax        # 80897e7 <L.161>
 804b4f4:	48 89 c7             	mov    %rax,%rdi
 804b4f7:	b8 00 00 00 00       	mov    $0x0,%eax
 804b4fc:	e8 bf c5 03 00       	callq  8087ac0 <__preinit_array_end+0x20>
 804b501:	8b 45 d4             	mov    -0x2c(%rbp),%eax
 804b504:	83 f8 00             	cmp    $0x0,%eax
 804b507:	0f 84 14 00 00 00    	je     804b521 <main+0x1cb>
 804b50d:	8b 05 b5 2b 04 00    	mov    0x42bb5(%rip),%eax        # 808e0c8 <nb_files>
 804b513:	83 f8 00             	cmp    $0x0,%eax
 804b516:	0f 84 05 00 00 00    	je     804b521 <main+0x1cb>
 804b51c:	e9 44 00 00 00       	jmpq   804b565 <main+0x20f>
 804b521:	8b 45 d4             	mov    -0x2c(%rbp),%eax
 804b524:	85 c0                	test   %eax,%eax
 804b526:	0f 84 25 00 00 00    	je     804b551 <main+0x1fb>
 804b52c:	48 8b 45 e0          	mov    -0x20(%rbp),%rax
 804b530:	48 b9 48 01 00 00 00 	movabs $0x148,%rcx
 804b537:	00 00 00 
 804b53a:	48 01 c8             	add    %rcx,%rax
 804b53d:	8b 08                	mov    (%rax),%ecx
 804b53f:	85 c9                	test   %ecx,%ecx
 804b541:	0f 84 0a 00 00 00    	je     804b551 <main+0x1fb>
 804b547:	b8 00 00 00 00       	mov    $0x0,%eax
 804b54c:	e9 3f 05 00 00       	jmpq   804ba90 <main+0x73a>
 804b551:	b8 00 00 00 00       	mov    $0x0,%eax
 804b556:	e8 68 ef ff ff       	callq  804a4c3 <help>
 804b55b:	b8 01 00 00 00       	mov    $0x1,%eax
 804b560:	e9 2b 05 00 00       	jmpq   804ba90 <main+0x73a>
 804b565:	8b 05 5d 2b 04 00    	mov    0x42b5d(%rip),%eax        # 808e0c8 <nb_files>
 804b56b:	8b 0d 5b 2b 04 00    	mov    0x42b5b(%rip),%ecx        # 808e0cc <nb_libraries>
 804b571:	48 29 c8             	sub    %rcx,%rax
 804b574:	89 45 dc             	mov    %eax,-0x24(%rbp)
 804b577:	48 8b 05 62 2b 04 00 	mov    0x42b62(%rip),%rax        # 808e0e0 <outfile>
 804b57e:	85 c0                	test   %eax,%eax
 804b580:	0f 84 1e 00 00 00    	je     804b5a4 <main+0x24e>
 804b586:	8b 05 4c 2b 04 00    	mov    0x42b4c(%rip),%eax        # 808e0d8 <output_type>
 804b58c:	83 f8 00             	cmp    $0x0,%eax
 804b58f:	0f 85 0f 00 00 00    	jne    804b5a4 <main+0x24e>
 804b595:	b8 01 00 00 00       	mov    $0x1,%eax
 804b59a:	4c 8b 1d 9f 28 04 00 	mov    0x4289f(%rip),%r11        # 808de40 <_GLOBAL_OFFSET_TABLE_+0x1c0>
 804b5a1:	41 89 03             	mov    %eax,(%r11)
 804b5a4:	8b 05 2e 2b 04 00    	mov    0x42b2e(%rip),%eax        # 808e0d8 <output_type>
 804b5aa:	83 f8 03             	cmp    $0x3,%eax
 804b5ad:	0f 85 56 00 00 00    	jne    804b609 <main+0x2b3>
 804b5b3:	8b 05 23 2b 04 00    	mov    0x42b23(%rip),%eax        # 808e0dc <reloc_output>
 804b5b9:	85 c0                	test   %eax,%eax
 804b5bb:	0f 84 05 00 00 00    	je     804b5c6 <main+0x270>
 804b5c1:	e9 43 00 00 00       	jmpq   804b609 <main+0x2b3>
 804b5c6:	8b 45 dc             	mov    -0x24(%rbp),%eax
 804b5c9:	83 f8 01             	cmp    $0x1,%eax
 804b5cc:	0f 84 14 00 00 00    	je     804b5e6 <main+0x290>
 804b5d2:	48 8d 05 25 e2 03 00 	lea    0x3e225(%rip),%rax        # 80897fe <L.163>
 804b5d9:	48 89 c7             	mov    %rax,%rdi
 804b5dc:	b8 00 00 00 00       	mov    $0x0,%eax
 804b5e1:	e8 e1 20 00 00       	callq  804d6c7 <tcc_error>
 804b5e6:	8b 05 e0 2a 04 00    	mov    0x42ae0(%rip),%eax        # 808e0cc <nb_libraries>
 804b5ec:	83 f8 00             	cmp    $0x0,%eax
 804b5ef:	0f 84 14 00 00 00    	je     804b609 <main+0x2b3>
 804b5f5:	48 8d 05 28 e2 03 00 	lea    0x3e228(%rip),%rax        # 8089824 <L.164>
 804b5fc:	48 89 c7             	mov    %rax,%rdi
 804b5ff:	b8 00 00 00 00       	mov    $0x0,%eax
 804b604:	e8 be 20 00 00       	callq  804d6c7 <tcc_error>
 804b609:	8b 05 c9 2a 04 00    	mov    0x42ac9(%rip),%eax        # 808e0d8 <output_type>
 804b60f:	83 f8 04             	cmp    $0x4,%eax
 804b612:	0f 85 b0 00 00 00    	jne    804b6c8 <main+0x372>
 804b618:	48 8b 05 c1 2a 04 00 	mov    0x42ac1(%rip),%rax        # 808e0e0 <outfile>
 804b61f:	85 c0                	test   %eax,%eax
 804b621:	0f 84 05 00 00 00    	je     804b62c <main+0x2d6>
 804b627:	e9 23 00 00 00       	jmpq   804b64f <main+0x2f9>
 804b62c:	48 8b 45 e0          	mov    -0x20(%rbp),%rax
 804b630:	48 b9 70 0c 00 00 00 	movabs $0xc70,%rcx
 804b637:	00 00 00 
 804b63a:	48 01 c8             	add    %rcx,%rax
 804b63d:	48 8b 0d dc 27 04 00 	mov    0x427dc(%rip),%rcx        # 808de20 <_GLOBAL_OFFSET_TABLE_+0x1a0>
 804b644:	48 8b 09             	mov    (%rcx),%rcx
 804b647:	48 89 08             	mov    %rcx,(%rax)
 804b64a:	e9 79 00 00 00       	jmpq   804b6c8 <main+0x372>
 804b64f:	48 8b 45 e0          	mov    -0x20(%rbp),%rax
 804b653:	48 b9 70 0c 00 00 00 	movabs $0xc70,%rcx
 804b65a:	00 00 00 
 804b65d:	48 01 c8             	add    %rcx,%rax
 804b660:	48 8d 0d de e1 03 00 	lea    0x3e1de(%rip),%rcx        # 8089845 <L.165>
 804b667:	48 89 ce             	mov    %rcx,%rsi
 804b66a:	48 8b 0d 6f 2a 04 00 	mov    0x42a6f(%rip),%rcx        # 808e0e0 <outfile>
 804b671:	48 89 cf             	mov    %rcx,%rdi
 804b674:	48 89 45 b8          	mov    %rax,-0x48(%rbp)
 804b678:	b8 00 00 00 00       	mov    $0x0,%eax
 804b67d:	e8 7e c4 03 00       	callq  8087b00 <__preinit_array_end+0x60>
 804b682:	48 8b 4d b8          	mov    -0x48(%rbp),%rcx
 804b686:	48 89 01             	mov    %rax,(%rcx)
 804b689:	48 8b 45 e0          	mov    -0x20(%rbp),%rax
 804b68d:	48 b9 70 0c 00 00 00 	movabs $0xc70,%rcx
 804b694:	00 00 00 
 804b697:	48 01 c8             	add    %rcx,%rax
 804b69a:	48 8b 08             	mov    (%rax),%rcx
 804b69d:	85 c9                	test   %ecx,%ecx
 804b69f:	0f 84 05 00 00 00    	je     804b6aa <main+0x354>
 804b6a5:	e9 1e 00 00 00       	jmpq   804b6c8 <main+0x372>
 804b6aa:	48 8b 05 2f 2a 04 00 	mov    0x42a2f(%rip),%rax        # 808e0e0 <outfile>
 804b6b1:	48 89 c6             	mov    %rax,%rsi
 804b6b4:	48 8d 05 8c e1 03 00 	lea    0x3e18c(%rip),%rax        # 8089847 <L.166>
 804b6bb:	48 89 c7             	mov    %rax,%rdi
 804b6be:	b8 00 00 00 00       	mov    $0x0,%eax
 804b6c3:	e8 ff 1f 00 00       	callq  804d6c7 <tcc_error>
 804b6c8:	8b 05 56 d7 03 00    	mov    0x3d756(%rip),%eax        # 8088e24 <do_bench>
 804b6ce:	85 c0                	test   %eax,%eax
 804b6d0:	0f 84 0e 00 00 00    	je     804b6e4 <main+0x38e>
 804b6d6:	b8 00 00 00 00       	mov    $0x0,%eax
 804b6db:	e8 04 ee ff ff       	callq  804a4e4 <getclock_us>
 804b6e0:	48 89 45 c8          	mov    %rax,-0x38(%rbp)
 804b6e4:	8b 05 ee 29 04 00    	mov    0x429ee(%rip),%eax        # 808e0d8 <output_type>
 804b6ea:	48 89 c6             	mov    %rax,%rsi
 804b6ed:	48 8b 45 e0          	mov    -0x20(%rbp),%rax
 804b6f1:	48 89 c7             	mov    %rax,%rdi
 804b6f4:	b8 00 00 00 00       	mov    $0x0,%eax
 804b6f9:	e8 ed 45 00 00       	callq  804fceb <tcc_set_output_type>
 804b6fe:	48 8b 45 e0          	mov    -0x20(%rbp),%rax
 804b702:	8b 0d d4 29 04 00    	mov    0x429d4(%rip),%ecx        # 808e0dc <reloc_output>
 804b708:	48 89 ca             	mov    %rcx,%rdx
 804b70b:	83 e2 01             	and    $0x1,%edx
 804b70e:	c1 e2 08             	shl    $0x8,%edx
 804b711:	48 89 4d b0          	mov    %rcx,-0x50(%rbp)
 804b715:	8b 08                	mov    (%rax),%ecx
 804b717:	81 e1 ff fe ff ff    	and    $0xfffffeff,%ecx
 804b71d:	48 09 ca             	or     %rcx,%rdx
 804b720:	89 10                	mov    %edx,(%rax)
 804b722:	b8 00 00 00 00       	mov    $0x0,%eax
 804b727:	89 45 ec             	mov    %eax,-0x14(%rbp)
 804b72a:	8b 45 ec             	mov    -0x14(%rbp),%eax
 804b72d:	8b 0d 95 29 04 00    	mov    0x42995(%rip),%ecx        # 808e0c8 <nb_files>
 804b733:	39 c8                	cmp    %ecx,%eax
 804b735:	0f 8d 45 01 00 00    	jge    804b880 <main+0x52a>
 804b73b:	8b 45 d8             	mov    -0x28(%rbp),%eax
 804b73e:	83 f8 00             	cmp    $0x0,%eax
 804b741:	0f 85 39 01 00 00    	jne    804b880 <main+0x52a>
 804b747:	e9 0e 00 00 00       	jmpq   804b75a <main+0x404>
 804b74c:	8b 45 ec             	mov    -0x14(%rbp),%eax
 804b74f:	48 89 c1             	mov    %rax,%rcx
 804b752:	83 c0 01             	add    $0x1,%eax
 804b755:	89 45 ec             	mov    %eax,-0x14(%rbp)
 804b758:	eb d0                	jmp    804b72a <main+0x3d4>
 804b75a:	8b 45 ec             	mov    -0x14(%rbp),%eax
 804b75d:	48 63 c0             	movslq %eax,%rax
 804b760:	48 89 c1             	mov    %rax,%rcx
 804b763:	48 c1 e1 03          	shl    $0x3,%rcx
 804b767:	48 8b 05 52 29 04 00 	mov    0x42952(%rip),%rax        # 808e0c0 <files>
 804b76e:	48 89 ca             	mov    %rcx,%rdx
 804b771:	48 01 d0             	add    %rdx,%rax
 804b774:	48 8b 08             	mov    (%rax),%rcx
 804b777:	48 89 4d a8          	mov    %rcx,-0x58(%rbp)
 804b77b:	48 8b 45 a8          	mov    -0x58(%rbp),%rax
 804b77f:	0f be 08             	movsbl (%rax),%ecx
 804b782:	83 f9 2d             	cmp    $0x2d,%ecx
 804b785:	0f 85 73 00 00 00    	jne    804b7fe <main+0x4a8>
 804b78b:	48 8b 45 a8          	mov    -0x58(%rbp),%rax
 804b78f:	48 b9 01 00 00 00 00 	movabs $0x1,%rcx
 804b796:	00 00 00 
 804b799:	48 01 c8             	add    %rcx,%rax
 804b79c:	0f be 08             	movsbl (%rax),%ecx
 804b79f:	83 f9 6c             	cmp    $0x6c,%ecx
 804b7a2:	0f 85 56 00 00 00    	jne    804b7fe <main+0x4a8>
 804b7a8:	48 8b 45 a8          	mov    -0x58(%rbp),%rax
 804b7ac:	48 b9 02 00 00 00 00 	movabs $0x2,%rcx
 804b7b3:	00 00 00 
 804b7b6:	48 01 c8             	add    %rcx,%rax
 804b7b9:	48 89 c6             	mov    %rax,%rsi
 804b7bc:	48 8b 45 e0          	mov    -0x20(%rbp),%rax
 804b7c0:	48 89 c7             	mov    %rax,%rdi
 804b7c3:	b8 00 00 00 00       	mov    $0x0,%eax
 804b7c8:	e8 91 43 00 00       	callq  804fb5e <tcc_add_library>
 804b7cd:	83 f8 00             	cmp    $0x0,%eax
 804b7d0:	0f 8d 23 00 00 00    	jge    804b7f9 <main+0x4a3>
 804b7d6:	48 8b 45 a8          	mov    -0x58(%rbp),%rax
 804b7da:	48 89 c6             	mov    %rax,%rsi
 804b7dd:	48 8d 05 77 e0 03 00 	lea    0x3e077(%rip),%rax        # 808985b <L.167>
 804b7e4:	48 89 c7             	mov    %rax,%rdi
 804b7e7:	b8 00 00 00 00       	mov    $0x0,%eax
 804b7ec:	e8 fc 1c 00 00       	callq  804d4ed <tcc_error_noabort>
 804b7f1:	b8 01 00 00 00       	mov    $0x1,%eax
 804b7f6:	89 45 d8             	mov    %eax,-0x28(%rbp)
 804b7f9:	e9 7d 00 00 00       	jmpq   804b87b <main+0x525>
 804b7fe:	48 8b 45 e0          	mov    -0x20(%rbp),%rax
 804b802:	48 b9 48 01 00 00 00 	movabs $0x148,%rcx
 804b809:	00 00 00 
 804b80c:	48 01 c8             	add    %rcx,%rax
 804b80f:	b9 01 00 00 00       	mov    $0x1,%ecx
 804b814:	8b 10                	mov    (%rax),%edx
 804b816:	39 d1                	cmp    %edx,%ecx
 804b818:	0f 85 1b 00 00 00    	jne    804b839 <main+0x4e3>
 804b81e:	48 8b 45 a8          	mov    -0x58(%rbp),%rax
 804b822:	48 89 c6             	mov    %rax,%rsi
 804b825:	48 8d 05 3e e0 03 00 	lea    0x3e03e(%rip),%rax        # 808986a <L.168>
 804b82c:	48 89 c7             	mov    %rax,%rdi
 804b82f:	b8 00 00 00 00       	mov    $0x0,%eax
 804b834:	e8 87 c2 03 00       	callq  8087ac0 <__preinit_array_end+0x20>
 804b839:	48 8b 45 a8          	mov    -0x58(%rbp),%rax
 804b83d:	48 89 c6             	mov    %rax,%rsi
 804b840:	48 8b 45 e0          	mov    -0x20(%rbp),%rax
 804b844:	48 89 c7             	mov    %rax,%rdi
 804b847:	b8 00 00 00 00       	mov    $0x0,%eax
 804b84c:	e8 1c 40 00 00       	callq  804f86d <tcc_add_file>
 804b851:	83 f8 00             	cmp    $0x0,%eax
 804b854:	0f 8d 08 00 00 00    	jge    804b862 <main+0x50c>
 804b85a:	b8 01 00 00 00       	mov    $0x1,%eax
 804b85f:	89 45 d8             	mov    %eax,-0x28(%rbp)
 804b862:	48 8b 45 c0          	mov    -0x40(%rbp),%rax
 804b866:	85 c0                	test   %eax,%eax
 804b868:	0f 84 05 00 00 00    	je     804b873 <main+0x51d>
 804b86e:	e9 08 00 00 00       	jmpq   804b87b <main+0x525>
 804b873:	48 8b 45 a8          	mov    -0x58(%rbp),%rax
 804b877:	48 89 45 c0          	mov    %rax,-0x40(%rbp)
 804b87b:	e9 cc fe ff ff       	jmpq   804b74c <main+0x3f6>
 804b880:	48 8b 05 39 28 04 00 	mov    0x42839(%rip),%rax        # 808e0c0 <files>
 804b887:	48 89 c7             	mov    %rax,%rdi
 804b88a:	b8 00 00 00 00       	mov    $0x0,%eax
 804b88f:	e8 a2 06 00 00       	callq  804bf36 <tcc_free>
 804b894:	b8 00 00 00 00       	mov    $0x0,%eax
 804b899:	8b 4d d8             	mov    -0x28(%rbp),%ecx
 804b89c:	39 c8                	cmp    %ecx,%eax
 804b89e:	0f 85 ab 01 00 00    	jne    804ba4f <main+0x6f9>
 804b8a4:	8b 05 7a d5 03 00    	mov    0x3d57a(%rip),%eax        # 8088e24 <do_bench>
 804b8aa:	85 c0                	test   %eax,%eax
 804b8ac:	0f 84 25 00 00 00    	je     804b8d7 <main+0x581>
 804b8b2:	b8 00 00 00 00       	mov    $0x0,%eax
 804b8b7:	e8 28 ec ff ff       	callq  804a4e4 <getclock_us>
 804b8bc:	48 8b 4d c8          	mov    -0x38(%rbp),%rcx
 804b8c0:	48 29 c8             	sub    %rcx,%rax
 804b8c3:	48 89 c6             	mov    %rax,%rsi
 804b8c6:	48 8b 45 e0          	mov    -0x20(%rbp),%rax
 804b8ca:	48 89 c7             	mov    %rax,%rdi
 804b8cd:	b8 00 00 00 00       	mov    $0x0,%eax
 804b8d2:	e8 5d 51 00 00       	callq  8050a34 <tcc_print_stats>
 804b8d7:	48 8b 45 e0          	mov    -0x20(%rbp),%rax
 804b8db:	8b 08                	mov    (%rax),%ecx
 804b8dd:	c1 e1 18             	shl    $0x18,%ecx
 804b8e0:	c1 e9 18             	shr    $0x18,%ecx
 804b8e3:	83 f9 00             	cmp    $0x0,%ecx
 804b8e6:	0f 85 59 00 00 00    	jne    804b945 <main+0x5ef>
 804b8ec:	8b 45 f8             	mov    -0x8(%rbp),%eax
 804b8ef:	83 e8 01             	sub    $0x1,%eax
 804b8f2:	8b 4d d4             	mov    -0x2c(%rbp),%ecx
 804b8f5:	48 29 c8             	sub    %rcx,%rax
 804b8f8:	48 8b 4d f0          	mov    -0x10(%rbp),%rcx
 804b8fc:	48 ba 08 00 00 00 00 	movabs $0x8,%rdx
 804b903:	00 00 00 
 804b906:	48 01 d1             	add    %rdx,%rcx
 804b909:	8b 55 d4             	mov    -0x2c(%rbp),%edx
 804b90c:	48 63 d2             	movslq %edx,%rdx
 804b90f:	48 89 45 a0          	mov    %rax,-0x60(%rbp)
 804b913:	48 89 d0             	mov    %rdx,%rax
 804b916:	48 c1 e0 03          	shl    $0x3,%rax
 804b91a:	48 89 c2             	mov    %rax,%rdx
 804b91d:	48 01 d1             	add    %rdx,%rcx
 804b920:	49 89 ca             	mov    %rcx,%r10
 804b923:	8b 45 a0             	mov    -0x60(%rbp),%eax
 804b926:	48 89 c6             	mov    %rax,%rsi
 804b929:	48 8b 45 e0          	mov    -0x20(%rbp),%rax
 804b92d:	48 89 c7             	mov    %rax,%rdi
 804b930:	4c 89 d2             	mov    %r10,%rdx
 804b933:	b8 00 00 00 00       	mov    $0x0,%eax
 804b938:	e8 23 09 03 00       	callq  807c260 <tcc_run>
 804b93d:	89 45 d8             	mov    %eax,-0x28(%rbp)
 804b940:	e9 0a 01 00 00       	jmpq   804ba4f <main+0x6f9>
 804b945:	48 8b 45 e0          	mov    -0x20(%rbp),%rax
 804b949:	8b 08                	mov    (%rax),%ecx
 804b94b:	c1 e1 18             	shl    $0x18,%ecx
 804b94e:	c1 e9 18             	shr    $0x18,%ecx
 804b951:	83 f9 04             	cmp    $0x4,%ecx
 804b954:	0f 85 42 00 00 00    	jne    804b99c <main+0x646>
 804b95a:	48 8b 45 e0          	mov    -0x20(%rbp),%rax
 804b95e:	48 b9 70 0c 00 00 00 	movabs $0xc70,%rcx
 804b965:	00 00 00 
 804b968:	48 01 c8             	add    %rcx,%rax
 804b96b:	48 8b 08             	mov    (%rax),%rcx
 804b96e:	85 c9                	test   %ecx,%ecx
 804b970:	0f 84 21 00 00 00    	je     804b997 <main+0x641>
 804b976:	48 8b 45 e0          	mov    -0x20(%rbp),%rax
 804b97a:	48 b9 70 0c 00 00 00 	movabs $0xc70,%rcx
 804b981:	00 00 00 
 804b984:	48 01 c8             	add    %rcx,%rax
 804b987:	48 8b 08             	mov    (%rax),%rcx
 804b98a:	48 89 cf             	mov    %rcx,%rdi
 804b98d:	b8 00 00 00 00       	mov    $0x0,%eax
 804b992:	e8 79 c1 03 00       	callq  8087b10 <__preinit_array_end+0x70>
 804b997:	e9 b3 00 00 00       	jmpq   804ba4f <main+0x6f9>
 804b99c:	48 8b 05 3d 27 04 00 	mov    0x4273d(%rip),%rax        # 808e0e0 <outfile>
 804b9a3:	85 c0                	test   %eax,%eax
 804b9a5:	0f 84 05 00 00 00    	je     804b9b0 <main+0x65a>
 804b9ab:	e9 22 00 00 00       	jmpq   804b9d2 <main+0x67c>
 804b9b0:	48 8b 45 c0          	mov    -0x40(%rbp),%rax
 804b9b4:	48 89 c6             	mov    %rax,%rsi
 804b9b7:	48 8b 45 e0          	mov    -0x20(%rbp),%rax
 804b9bb:	48 89 c7             	mov    %rax,%rdi
 804b9be:	b8 00 00 00 00       	mov    $0x0,%eax
 804b9c3:	e8 e1 51 00 00       	callq  8050ba9 <tcc_default_target>
 804b9c8:	4c 8b 1d 81 24 04 00 	mov    0x42481(%rip),%r11        # 808de50 <_GLOBAL_OFFSET_TABLE_+0x1d0>
 804b9cf:	49 89 03             	mov    %rax,(%r11)
 804b9d2:	48 8b 05 07 27 04 00 	mov    0x42707(%rip),%rax        # 808e0e0 <outfile>
 804b9d9:	48 89 c6             	mov    %rax,%rsi
 804b9dc:	48 8b 45 e0          	mov    -0x20(%rbp),%rax
 804b9e0:	48 89 c7             	mov    %rax,%rdi
 804b9e3:	b8 00 00 00 00       	mov    $0x0,%eax
 804b9e8:	e8 0c 9b 02 00       	callq  80754f9 <tcc_output_file>
 804b9ed:	85 c0                	test   %eax,%eax
 804b9ef:	0f 84 05 00 00 00    	je     804b9fa <main+0x6a4>
 804b9f5:	e9 07 00 00 00       	jmpq   804ba01 <main+0x6ab>
 804b9fa:	b8 00 00 00 00       	mov    $0x0,%eax
 804b9ff:	eb 05                	jmp    804ba06 <main+0x6b0>
 804ba01:	b8 01 00 00 00       	mov    $0x1,%eax
 804ba06:	89 45 d8             	mov    %eax,-0x28(%rbp)
 804ba09:	8b 05 d9 26 04 00    	mov    0x426d9(%rip),%eax        # 808e0e8 <gen_deps>
 804ba0f:	85 c0                	test   %eax,%eax
 804ba11:	0f 84 38 00 00 00    	je     804ba4f <main+0x6f9>
 804ba17:	8b 45 d8             	mov    -0x28(%rbp),%eax
 804ba1a:	85 c0                	test   %eax,%eax
 804ba1c:	0f 84 05 00 00 00    	je     804ba27 <main+0x6d1>
 804ba22:	e9 28 00 00 00       	jmpq   804ba4f <main+0x6f9>
 804ba27:	48 8b 05 c2 26 04 00 	mov    0x426c2(%rip),%rax        # 808e0f0 <deps_outfile>
 804ba2e:	49 89 c2             	mov    %rax,%r10
 804ba31:	48 8b 05 a8 26 04 00 	mov    0x426a8(%rip),%rax        # 808e0e0 <outfile>
 804ba38:	48 89 c6             	mov    %rax,%rsi
 804ba3b:	48 8b 45 e0          	mov    -0x20(%rbp),%rax
 804ba3f:	48 89 c7             	mov    %rax,%rdi
 804ba42:	4c 89 d2             	mov    %r10,%rdx
 804ba45:	b8 00 00 00 00       	mov    $0x0,%eax
 804ba4a:	e8 cc 52 00 00       	callq  8050d1b <tcc_gen_makedeps>
 804ba4f:	48 8b 45 e0          	mov    -0x20(%rbp),%rax
 804ba53:	48 89 c7             	mov    %rax,%rdi
 804ba56:	b8 00 00 00 00       	mov    $0x0,%eax
 804ba5b:	e8 9b 34 00 00       	callq  804eefb <tcc_delete>
 804ba60:	48 8d 05 99 26 04 00 	lea    0x42699(%rip),%rax        # 808e100 <linker_arg>
 804ba67:	48 89 c7             	mov    %rax,%rdi
 804ba6a:	b8 00 00 00 00       	mov    $0x0,%eax
 804ba6f:	e8 88 59 00 00       	callq  80513fc <cstr_free>
 804ba74:	48 8b 05 65 26 04 00 	mov    0x42665(%rip),%rax        # 808e0e0 <outfile>
 804ba7b:	48 89 c7             	mov    %rax,%rdi
 804ba7e:	b8 00 00 00 00       	mov    $0x0,%eax
 804ba83:	e8 ae 04 00 00       	callq  804bf36 <tcc_free>
 804ba88:	8b 45 d8             	mov    -0x28(%rbp),%eax
 804ba8b:	e9 00 00 00 00       	jmpq   804ba90 <main+0x73a>
 804ba90:	c9                   	leaveq 
 804ba91:	c3                   	retq   

000000000804ba92 <is_space>:
 804ba92:	55                   	push   %rbp
 804ba93:	48 89 e5             	mov    %rsp,%rbp
 804ba96:	48 81 ec 10 00 00 00 	sub    $0x10,%rsp
 804ba9d:	48 89 7d f8          	mov    %rdi,-0x8(%rbp)
 804baa1:	8b 45 f8             	mov    -0x8(%rbp),%eax
 804baa4:	83 f8 20             	cmp    $0x20,%eax
 804baa7:	0f 84 37 00 00 00    	je     804bae4 <is_space+0x52>
 804baad:	8b 45 f8             	mov    -0x8(%rbp),%eax
 804bab0:	83 f8 09             	cmp    $0x9,%eax
 804bab3:	0f 84 2b 00 00 00    	je     804bae4 <is_space+0x52>
 804bab9:	8b 45 f8             	mov    -0x8(%rbp),%eax
 804babc:	83 f8 0b             	cmp    $0xb,%eax
 804babf:	0f 84 1f 00 00 00    	je     804bae4 <is_space+0x52>
 804bac5:	8b 45 f8             	mov    -0x8(%rbp),%eax
 804bac8:	83 f8 0c             	cmp    $0xc,%eax
 804bacb:	0f 84 13 00 00 00    	je     804bae4 <is_space+0x52>
 804bad1:	8b 45 f8             	mov    -0x8(%rbp),%eax
 804bad4:	83 f8 0d             	cmp    $0xd,%eax
 804bad7:	0f 84 07 00 00 00    	je     804bae4 <is_space+0x52>
 804badd:	b8 00 00 00 00       	mov    $0x0,%eax
 804bae2:	eb 05                	jmp    804bae9 <is_space+0x57>
 804bae4:	b8 01 00 00 00       	mov    $0x1,%eax
 804bae9:	e9 00 00 00 00       	jmpq   804baee <is_space+0x5c>
 804baee:	c9                   	leaveq 
 804baef:	c3                   	retq   
	...

000000000804bb00 <__bswap_16>:
 804bb00:	55                   	push   %rbp
 804bb01:	48 89 e5             	mov    %rsp,%rbp
 804bb04:	48 81 ec 10 00 00 00 	sub    $0x10,%rsp
 804bb0b:	48 89 7d f8          	mov    %rdi,-0x8(%rbp)
 804bb0f:	8b 45 f8             	mov    -0x8(%rbp),%eax
 804bb12:	c1 f8 08             	sar    $0x8,%eax
 804bb15:	81 e0 ff 00 00 00    	and    $0xff,%eax
 804bb1b:	8b 4d f8             	mov    -0x8(%rbp),%ecx
 804bb1e:	81 e1 ff 00 00 00    	and    $0xff,%ecx
 804bb24:	c1 e1 08             	shl    $0x8,%ecx
 804bb27:	48 09 c8             	or     %rcx,%rax
 804bb2a:	81 e0 ff ff 00 00    	and    $0xffff,%eax
 804bb30:	e9 00 00 00 00       	jmpq   804bb35 <__bswap_16+0x35>
 804bb35:	c9                   	leaveq 
 804bb36:	c3                   	retq   

000000000804bb37 <__bswap_32>:
 804bb37:	55                   	push   %rbp
 804bb38:	48 89 e5             	mov    %rsp,%rbp
 804bb3b:	48 81 ec 10 00 00 00 	sub    $0x10,%rsp
 804bb42:	48 89 7d f8          	mov    %rdi,-0x8(%rbp)
 804bb46:	8b 45 f8             	mov    -0x8(%rbp),%eax
 804bb49:	81 e0 00 00 00 ff    	and    $0xff000000,%eax
 804bb4f:	c1 e8 18             	shr    $0x18,%eax
 804bb52:	8b 4d f8             	mov    -0x8(%rbp),%ecx
 804bb55:	81 e1 00 00 ff 00    	and    $0xff0000,%ecx
 804bb5b:	c1 e9 08             	shr    $0x8,%ecx
 804bb5e:	48 09 c8             	or     %rcx,%rax
 804bb61:	8b 4d f8             	mov    -0x8(%rbp),%ecx
 804bb64:	81 e1 00 ff 00 00    	and    $0xff00,%ecx
 804bb6a:	c1 e1 08             	shl    $0x8,%ecx
 804bb6d:	48 09 c8             	or     %rcx,%rax
 804bb70:	8b 4d f8             	mov    -0x8(%rbp),%ecx
 804bb73:	81 e1 ff 00 00 00    	and    $0xff,%ecx
 804bb79:	c1 e1 18             	shl    $0x18,%ecx
 804bb7c:	48 09 c8             	or     %rcx,%rax
 804bb7f:	e9 00 00 00 00       	jmpq   804bb84 <__bswap_32+0x4d>
 804bb84:	c9                   	leaveq 
 804bb85:	c3                   	retq   

000000000804bb86 <__bswap_64>:
 804bb86:	55                   	push   %rbp
 804bb87:	48 89 e5             	mov    %rsp,%rbp
 804bb8a:	48 81 ec 10 00 00 00 	sub    $0x10,%rsp
 804bb91:	48 89 7d f8          	mov    %rdi,-0x8(%rbp)
 804bb95:	48 8b 45 f8          	mov    -0x8(%rbp),%rax
 804bb99:	48 b9 00 00 00 00 00 	movabs $0xff00000000000000,%rcx
 804bba0:	00 00 ff 
 804bba3:	48 21 c8             	and    %rcx,%rax
 804bba6:	48 89 c1             	mov    %rax,%rcx
 804bba9:	48 c1 e9 38          	shr    $0x38,%rcx
 804bbad:	48 8b 45 f8          	mov    -0x8(%rbp),%rax
 804bbb1:	48 ba 00 00 00 00 00 	movabs $0xff000000000000,%rdx
 804bbb8:	00 ff 00 
 804bbbb:	48 21 d0             	and    %rdx,%rax
 804bbbe:	48 89 c2             	mov    %rax,%rdx
 804bbc1:	48 c1 ea 28          	shr    $0x28,%rdx
 804bbc5:	48 89 c8             	mov    %rcx,%rax
 804bbc8:	48 89 d1             	mov    %rdx,%rcx
 804bbcb:	48 09 c8             	or     %rcx,%rax
 804bbce:	48 8b 4d f8          	mov    -0x8(%rbp),%rcx
 804bbd2:	48 ba 00 00 00 00 00 	movabs $0xff0000000000,%rdx
 804bbd9:	ff 00 00 
 804bbdc:	48 21 d1             	and    %rdx,%rcx
 804bbdf:	48 89 ca             	mov    %rcx,%rdx
 804bbe2:	48 c1 ea 18          	shr    $0x18,%rdx
 804bbe6:	48 89 c1             	mov    %rax,%rcx
 804bbe9:	48 89 d0             	mov    %rdx,%rax
 804bbec:	48 09 c1             	or     %rax,%rcx
 804bbef:	48 8b 45 f8          	mov    -0x8(%rbp),%rax
 804bbf3:	48 ba 00 00 00 00 ff 	movabs $0xff00000000,%rdx
 804bbfa:	00 00 00 
 804bbfd:	48 21 d0             	and    %rdx,%rax
 804bc00:	48 89 c2             	mov    %rax,%rdx
 804bc03:	48 c1 ea 08          	shr    $0x8,%rdx
 804bc07:	48 89 c8             	mov    %rcx,%rax
 804bc0a:	48 89 d1             	mov    %rdx,%rcx
 804bc0d:	48 09 c8             	or     %rcx,%rax
 804bc10:	48 8b 4d f8          	mov    -0x8(%rbp),%rcx
 804bc14:	48 ba 00 00 00 ff 00 	movabs $0xff000000,%rdx
 804bc1b:	00 00 00 
 804bc1e:	48 21 d1             	and    %rdx,%rcx
 804bc21:	48 89 ca             	mov    %rcx,%rdx
 804bc24:	48 c1 e2 08          	shl    $0x8,%rdx
 804bc28:	48 89 c1             	mov    %rax,%rcx
 804bc2b:	48 89 d0             	mov    %rdx,%rax
 804bc2e:	48 09 c1             	or     %rax,%rcx
 804bc31:	48 8b 45 f8          	mov    -0x8(%rbp),%rax
 804bc35:	48 ba 00 00 ff 00 00 	movabs $0xff0000,%rdx
 804bc3c:	00 00 00 
 804bc3f:	48 21 d0             	and    %rdx,%rax
 804bc42:	48 89 c2             	mov    %rax,%rdx
 804bc45:	48 c1 e2 18          	shl    $0x18,%rdx
 804bc49:	48 89 c8             	mov    %rcx,%rax
 804bc4c:	48 89 d1             	mov    %rdx,%rcx
 804bc4f:	48 09 c8             	or     %rcx,%rax
 804bc52:	48 8b 4d f8          	mov    -0x8(%rbp),%rcx
 804bc56:	48 ba 00 ff 00 00 00 	movabs $0xff00,%rdx
 804bc5d:	00 00 00 
 804bc60:	48 21 d1             	and    %rdx,%rcx
 804bc63:	48 89 ca             	mov    %rcx,%rdx
 804bc66:	48 c1 e2 28          	shl    $0x28,%rdx
 804bc6a:	48 89 c1             	mov    %rax,%rcx
 804bc6d:	48 89 d0             	mov    %rdx,%rax
 804bc70:	48 09 c1             	or     %rax,%rcx
 804bc73:	48 8b 45 f8          	mov    -0x8(%rbp),%rax
 804bc77:	48 ba ff 00 00 00 00 	movabs $0xff,%rdx
 804bc7e:	00 00 00 
 804bc81:	48 21 d0             	and    %rdx,%rax
 804bc84:	48 89 c2             	mov    %rax,%rdx
 804bc87:	48 c1 e2 38          	shl    $0x38,%rdx
 804bc8b:	48 89 c8             	mov    %rcx,%rax
 804bc8e:	48 89 d1             	mov    %rdx,%rcx
 804bc91:	48 09 c8             	or     %rcx,%rax
 804bc94:	48 89 45 f0          	mov    %rax,-0x10(%rbp)
 804bc98:	48 8b 45 f0          	mov    -0x10(%rbp),%rax
 804bc9c:	e9 00 00 00 00       	jmpq   804bca1 <__bswap_64+0x11b>
 804bca1:	c9                   	leaveq 
 804bca2:	c3                   	retq   

000000000804bca3 <pstrcpy>:
 804bca3:	55                   	push   %rbp
 804bca4:	48 89 e5             	mov    %rsp,%rbp
 804bca7:	48 81 ec 30 00 00 00 	sub    $0x30,%rsp
 804bcae:	48 89 7d f8          	mov    %rdi,-0x8(%rbp)
 804bcb2:	48 89 75 f0          	mov    %rsi,-0x10(%rbp)
 804bcb6:	48 89 55 e8          	mov    %rdx,-0x18(%rbp)
 804bcba:	8b 45 f0             	mov    -0x10(%rbp),%eax
 804bcbd:	83 f8 00             	cmp    $0x0,%eax
 804bcc0:	0f 8e 9a 00 00 00    	jle    804bd60 <pstrcpy+0xbd>
 804bcc6:	48 8b 45 f8          	mov    -0x8(%rbp),%rax
 804bcca:	48 89 45 e0          	mov    %rax,-0x20(%rbp)
 804bcce:	8b 45 f0             	mov    -0x10(%rbp),%eax
 804bcd1:	48 63 c0             	movslq %eax,%rax
 804bcd4:	48 8b 4d f8          	mov    -0x8(%rbp),%rcx
 804bcd8:	48 89 c2             	mov    %rax,%rdx
 804bcdb:	48 01 d1             	add    %rdx,%rcx
 804bcde:	48 b8 01 00 00 00 00 	movabs $0x1,%rax
 804bce5:	00 00 00 
 804bce8:	48 29 c1             	sub    %rax,%rcx
 804bceb:	48 89 4d d8          	mov    %rcx,-0x28(%rbp)
 804bcef:	48 8b 45 e0          	mov    -0x20(%rbp),%rax
 804bcf3:	48 8b 4d d8          	mov    -0x28(%rbp),%rcx
 804bcf7:	48 89 c2             	mov    %rax,%rdx
 804bcfa:	48 89 c8             	mov    %rcx,%rax
 804bcfd:	48 39 c2             	cmp    %rax,%rdx
 804bd00:	0f 83 4f 00 00 00    	jae    804bd55 <pstrcpy+0xb2>
 804bd06:	48 8b 45 e8          	mov    -0x18(%rbp),%rax
 804bd0a:	48 89 c1             	mov    %rax,%rcx
 804bd0d:	48 ba 01 00 00 00 00 	movabs $0x1,%rdx
 804bd14:	00 00 00 
 804bd17:	48 01 d0             	add    %rdx,%rax
 804bd1a:	48 89 45 e8          	mov    %rax,-0x18(%rbp)
 804bd1e:	0f be 01             	movsbl (%rcx),%eax
 804bd21:	89 45 d4             	mov    %eax,-0x2c(%rbp)
 804bd24:	8b 45 d4             	mov    -0x2c(%rbp),%eax
 804bd27:	83 f8 00             	cmp    $0x0,%eax
 804bd2a:	0f 85 05 00 00 00    	jne    804bd35 <pstrcpy+0x92>
 804bd30:	e9 20 00 00 00       	jmpq   804bd55 <pstrcpy+0xb2>
 804bd35:	48 8b 45 e0          	mov    -0x20(%rbp),%rax
 804bd39:	48 89 c1             	mov    %rax,%rcx
 804bd3c:	48 ba 01 00 00 00 00 	movabs $0x1,%rdx
 804bd43:	00 00 00 
 804bd46:	48 01 d0             	add    %rdx,%rax
 804bd49:	48 89 45 e0          	mov    %rax,-0x20(%rbp)
 804bd4d:	0f be 45 d4          	movsbl -0x2c(%rbp),%eax
 804bd51:	88 01                	mov    %al,(%rcx)
 804bd53:	eb 9a                	jmp    804bcef <pstrcpy+0x4c>
 804bd55:	48 8b 45 e0          	mov    -0x20(%rbp),%rax
 804bd59:	b9 00 00 00 00       	mov    $0x0,%ecx
 804bd5e:	88 08                	mov    %cl,(%rax)
 804bd60:	48 8b 45 f8          	mov    -0x8(%rbp),%rax
 804bd64:	e9 00 00 00 00       	jmpq   804bd69 <pstrcpy+0xc6>
 804bd69:	c9                   	leaveq 
 804bd6a:	c3                   	retq   

000000000804bd6b <pstrcat>:
 804bd6b:	55                   	push   %rbp
 804bd6c:	48 89 e5             	mov    %rsp,%rbp
 804bd6f:	48 81 ec 20 00 00 00 	sub    $0x20,%rsp
 804bd76:	48 89 7d f8          	mov    %rdi,-0x8(%rbp)
 804bd7a:	48 89 75 f0          	mov    %rsi,-0x10(%rbp)
 804bd7e:	48 89 55 e8          	mov    %rdx,-0x18(%rbp)
 804bd82:	48 8b 45 f8          	mov    -0x8(%rbp),%rax
 804bd86:	48 89 c7             	mov    %rax,%rdi
 804bd89:	b8 00 00 00 00       	mov    $0x0,%eax
 804bd8e:	e8 4d b5 03 00       	callq  80872e0 <strlen>
 804bd93:	89 45 e4             	mov    %eax,-0x1c(%rbp)
 804bd96:	8b 45 e4             	mov    -0x1c(%rbp),%eax
 804bd99:	8b 4d f0             	mov    -0x10(%rbp),%ecx
 804bd9c:	39 c8                	cmp    %ecx,%eax
 804bd9e:	0f 8d 33 00 00 00    	jge    804bdd7 <pstrcat+0x6c>
 804bda4:	8b 45 e4             	mov    -0x1c(%rbp),%eax
 804bda7:	48 63 c0             	movslq %eax,%rax
 804bdaa:	48 8b 4d f8          	mov    -0x8(%rbp),%rcx
 804bdae:	48 89 c2             	mov    %rax,%rdx
 804bdb1:	48 01 d1             	add    %rdx,%rcx
 804bdb4:	8b 45 f0             	mov    -0x10(%rbp),%eax
 804bdb7:	8b 55 e4             	mov    -0x1c(%rbp),%edx
 804bdba:	48 29 d0             	sub    %rdx,%rax
 804bdbd:	48 8b 55 e8          	mov    -0x18(%rbp),%rdx
 804bdc1:	49 89 d2             	mov    %rdx,%r10
 804bdc4:	48 89 c6             	mov    %rax,%rsi
 804bdc7:	48 89 cf             	mov    %rcx,%rdi
 804bdca:	4c 89 d2             	mov    %r10,%rdx
 804bdcd:	b8 00 00 00 00       	mov    $0x0,%eax
 804bdd2:	e8 cc fe ff ff       	callq  804bca3 <pstrcpy>
 804bdd7:	48 8b 45 f8          	mov    -0x8(%rbp),%rax
 804bddb:	e9 00 00 00 00       	jmpq   804bde0 <pstrcat+0x75>
 804bde0:	c9                   	leaveq 
 804bde1:	c3                   	retq   

000000000804bde2 <pstrncpy>:
 804bde2:	55                   	push   %rbp
 804bde3:	48 89 e5             	mov    %rsp,%rbp
 804bde6:	48 81 ec 20 00 00 00 	sub    $0x20,%rsp
 804bded:	48 89 7d f8          	mov    %rdi,-0x8(%rbp)
 804bdf1:	48 89 75 f0          	mov    %rsi,-0x10(%rbp)
 804bdf5:	48 89 55 e8          	mov    %rdx,-0x18(%rbp)
 804bdf9:	8b 45 e8             	mov    -0x18(%rbp),%eax
 804bdfc:	49 89 c2             	mov    %rax,%r10
 804bdff:	48 8b 45 f0          	mov    -0x10(%rbp),%rax
 804be03:	48 89 c6             	mov    %rax,%rsi
 804be06:	48 8b 45 f8          	mov    -0x8(%rbp),%rax
 804be0a:	48 89 c7             	mov    %rax,%rdi
 804be0d:	4c 89 d2             	mov    %r10,%rdx
 804be10:	b8 00 00 00 00       	mov    $0x0,%eax
 804be15:	e8 56 ae 03 00       	callq  8086c70 <memcpy>
 804be1a:	8b 45 e8             	mov    -0x18(%rbp),%eax
 804be1d:	48 8b 4d f8          	mov    -0x8(%rbp),%rcx
 804be21:	48 89 c2             	mov    %rax,%rdx
 804be24:	48 01 d1             	add    %rdx,%rcx
 804be27:	b8 00 00 00 00       	mov    $0x0,%eax
 804be2c:	88 01                	mov    %al,(%rcx)
 804be2e:	48 8b 45 f8          	mov    -0x8(%rbp),%rax
 804be32:	e9 00 00 00 00       	jmpq   804be37 <pstrncpy+0x55>
 804be37:	c9                   	leaveq 
 804be38:	c3                   	retq   

000000000804be39 <tcc_basename>:
 804be39:	55                   	push   %rbp
 804be3a:	48 89 e5             	mov    %rsp,%rbp
 804be3d:	48 81 ec 10 00 00 00 	sub    $0x10,%rsp
 804be44:	48 89 7d f8          	mov    %rdi,-0x8(%rbp)
 804be48:	b8 00 00 00 00       	mov    $0x0,%eax
 804be4d:	48 89 c6             	mov    %rax,%rsi
 804be50:	48 8b 45 f8          	mov    -0x8(%rbp),%rax
 804be54:	48 89 c7             	mov    %rax,%rdi
 804be57:	b8 00 00 00 00       	mov    $0x0,%eax
 804be5c:	e8 df b1 03 00       	callq  8087040 <strchr>
 804be61:	48 89 45 f0          	mov    %rax,-0x10(%rbp)
 804be65:	48 8b 45 f0          	mov    -0x10(%rbp),%rax
 804be69:	48 8b 4d f8          	mov    -0x8(%rbp),%rcx
 804be6d:	48 89 c2             	mov    %rax,%rdx
 804be70:	48 89 c8             	mov    %rcx,%rax
 804be73:	48 39 c2             	cmp    %rax,%rdx
 804be76:	0f 86 34 00 00 00    	jbe    804beb0 <tcc_basename+0x77>
 804be7c:	48 8b 45 f0          	mov    -0x10(%rbp),%rax
 804be80:	48 b9 ff ff ff ff ff 	movabs $0xffffffffffffffff,%rcx
 804be87:	ff ff ff 
 804be8a:	48 01 c8             	add    %rcx,%rax
 804be8d:	0f be 08             	movsbl (%rax),%ecx
 804be90:	83 f9 2f             	cmp    $0x2f,%ecx
 804be93:	0f 84 17 00 00 00    	je     804beb0 <tcc_basename+0x77>
 804be99:	48 8b 45 f0          	mov    -0x10(%rbp),%rax
 804be9d:	48 b9 ff ff ff ff ff 	movabs $0xffffffffffffffff,%rcx
 804bea4:	ff ff ff 
 804bea7:	48 01 c8             	add    %rcx,%rax
 804beaa:	48 89 45 f0          	mov    %rax,-0x10(%rbp)
 804beae:	eb b5                	jmp    804be65 <tcc_basename+0x2c>
 804beb0:	48 8b 45 f0          	mov    -0x10(%rbp),%rax
 804beb4:	e9 00 00 00 00       	jmpq   804beb9 <tcc_basename+0x80>
 804beb9:	c9                   	leaveq 
 804beba:	c3                   	retq   

000000000804bebb <tcc_fileextension>:
 804bebb:	55                   	push   %rbp
 804bebc:	48 89 e5             	mov    %rsp,%rbp
 804bebf:	48 81 ec 20 00 00 00 	sub    $0x20,%rsp
 804bec6:	48 89 7d f8          	mov    %rdi,-0x8(%rbp)
 804beca:	48 8b 45 f8          	mov    -0x8(%rbp),%rax
 804bece:	48 89 c7             	mov    %rax,%rdi
 804bed1:	b8 00 00 00 00       	mov    $0x0,%eax
 804bed6:	e8 5e ff ff ff       	callq  804be39 <tcc_basename>
 804bedb:	48 89 45 f0          	mov    %rax,-0x10(%rbp)
 804bedf:	b8 2e 00 00 00       	mov    $0x2e,%eax
 804bee4:	48 89 c6             	mov    %rax,%rsi
 804bee7:	48 8b 45 f0          	mov    -0x10(%rbp),%rax
 804beeb:	48 89 c7             	mov    %rax,%rdi
 804beee:	b8 00 00 00 00       	mov    $0x0,%eax
 804bef3:	e8 78 b5 03 00       	callq  8087470 <strrchr>
 804bef8:	48 89 45 e8          	mov    %rax,-0x18(%rbp)
 804befc:	48 8b 45 e8          	mov    -0x18(%rbp),%rax
 804bf00:	85 c0                	test   %eax,%eax
 804bf02:	0f 84 05 00 00 00    	je     804bf0d <tcc_fileextension+0x52>
 804bf08:	e9 1e 00 00 00       	jmpq   804bf2b <tcc_fileextension+0x70>
 804bf0d:	b8 00 00 00 00       	mov    $0x0,%eax
 804bf12:	48 89 c6             	mov    %rax,%rsi
 804bf15:	48 8b 45 f0          	mov    -0x10(%rbp),%rax
 804bf19:	48 89 c7             	mov    %rax,%rdi
 804bf1c:	b8 00 00 00 00       	mov    $0x0,%eax
 804bf21:	e8 1a b1 03 00       	callq  8087040 <strchr>
 804bf26:	e9 04 00 00 00       	jmpq   804bf2f <tcc_fileextension+0x74>
 804bf2b:	48 8b 45 e8          	mov    -0x18(%rbp),%rax
 804bf2f:	e9 00 00 00 00       	jmpq   804bf34 <tcc_fileextension+0x79>
 804bf34:	c9                   	leaveq 
 804bf35:	c3                   	retq   

000000000804bf36 <tcc_free>:
 804bf36:	55                   	push   %rbp
 804bf37:	48 89 e5             	mov    %rsp,%rbp
 804bf3a:	48 81 ec 10 00 00 00 	sub    $0x10,%rsp
 804bf41:	48 89 7d f8          	mov    %rdi,-0x8(%rbp)
 804bf45:	48 8b 45 f8          	mov    -0x8(%rbp),%rax
 804bf49:	48 89 c7             	mov    %rax,%rdi
 804bf4c:	b8 00 00 00 00       	mov    $0x0,%eax
 804bf51:	e8 ca bb 03 00       	callq  8087b20 <__preinit_array_end+0x80>
 804bf56:	c9                   	leaveq 
 804bf57:	c3                   	retq   

000000000804bf58 <tcc_malloc>:
 804bf58:	55                   	push   %rbp
 804bf59:	48 89 e5             	mov    %rsp,%rbp
 804bf5c:	48 81 ec 10 00 00 00 	sub    $0x10,%rsp
 804bf63:	48 89 7d f8          	mov    %rdi,-0x8(%rbp)
 804bf67:	8b 45 f8             	mov    -0x8(%rbp),%eax
 804bf6a:	48 89 c7             	mov    %rax,%rdi
 804bf6d:	b8 00 00 00 00       	mov    $0x0,%eax
 804bf72:	e8 b9 bb 03 00       	callq  8087b30 <__preinit_array_end+0x90>
 804bf77:	48 89 45 f0          	mov    %rax,-0x10(%rbp)
 804bf7b:	48 8b 45 f0          	mov    -0x10(%rbp),%rax
 804bf7f:	85 c0                	test   %eax,%eax
 804bf81:	0f 84 05 00 00 00    	je     804bf8c <tcc_malloc+0x34>
 804bf87:	e9 35 00 00 00       	jmpq   804bfc1 <tcc_malloc+0x69>
 804bf8c:	48 8b 45 f8          	mov    -0x8(%rbp),%rax
 804bf90:	48 b9 00 00 00 00 00 	movabs $0x0,%rcx
 804bf97:	00 00 00 
 804bf9a:	48 39 c8             	cmp    %rcx,%rax
 804bf9d:	b8 00 00 00 00       	mov    $0x0,%eax
 804bfa2:	0f 95 c0             	setne  %al
 804bfa5:	85 c0                	test   %eax,%eax
 804bfa7:	0f 84 14 00 00 00    	je     804bfc1 <tcc_malloc+0x69>
 804bfad:	48 8d 05 f8 d8 03 00 	lea    0x3d8f8(%rip),%rax        # 80898ac <L.107>
 804bfb4:	48 89 c7             	mov    %rax,%rdi
 804bfb7:	b8 00 00 00 00       	mov    $0x0,%eax
 804bfbc:	e8 06 17 00 00       	callq  804d6c7 <tcc_error>
 804bfc1:	48 8b 45 f0          	mov    -0x10(%rbp),%rax
 804bfc5:	e9 00 00 00 00       	jmpq   804bfca <tcc_malloc+0x72>
 804bfca:	c9                   	leaveq 
 804bfcb:	c3                   	retq   

000000000804bfcc <tcc_mallocz>:
 804bfcc:	55                   	push   %rbp
 804bfcd:	48 89 e5             	mov    %rsp,%rbp
 804bfd0:	48 81 ec 10 00 00 00 	sub    $0x10,%rsp
 804bfd7:	48 89 7d f8          	mov    %rdi,-0x8(%rbp)
 804bfdb:	48 8b 45 f8          	mov    -0x8(%rbp),%rax
 804bfdf:	48 89 c7             	mov    %rax,%rdi
 804bfe2:	b8 00 00 00 00       	mov    $0x0,%eax
 804bfe7:	e8 6c ff ff ff       	callq  804bf58 <tcc_malloc>
 804bfec:	48 89 45 f0          	mov    %rax,-0x10(%rbp)
 804bff0:	8b 45 f8             	mov    -0x8(%rbp),%eax
 804bff3:	49 89 c2             	mov    %rax,%r10
 804bff6:	b8 00 00 00 00       	mov    $0x0,%eax
 804bffb:	48 89 c6             	mov    %rax,%rsi
 804bffe:	48 8b 45 f0          	mov    -0x10(%rbp),%rax
 804c002:	48 89 c7             	mov    %rax,%rdi
 804c005:	4c 89 d2             	mov    %r10,%rdx
 804c008:	b8 00 00 00 00       	mov    $0x0,%eax
 804c00d:	e8 9e ae 03 00       	callq  8086eb0 <memset>
 804c012:	48 8b 45 f0          	mov    -0x10(%rbp),%rax
 804c016:	e9 00 00 00 00       	jmpq   804c01b <tcc_mallocz+0x4f>
 804c01b:	c9                   	leaveq 
 804c01c:	c3                   	retq   

000000000804c01d <tcc_realloc>:
 804c01d:	55                   	push   %rbp
 804c01e:	48 89 e5             	mov    %rsp,%rbp
 804c021:	48 81 ec 20 00 00 00 	sub    $0x20,%rsp
 804c028:	48 89 7d f8          	mov    %rdi,-0x8(%rbp)
 804c02c:	48 89 75 f0          	mov    %rsi,-0x10(%rbp)
 804c030:	8b 45 f0             	mov    -0x10(%rbp),%eax
 804c033:	48 89 c6             	mov    %rax,%rsi
 804c036:	48 8b 45 f8          	mov    -0x8(%rbp),%rax
 804c03a:	48 89 c7             	mov    %rax,%rdi
 804c03d:	b8 00 00 00 00       	mov    $0x0,%eax
 804c042:	e8 f9 ba 03 00       	callq  8087b40 <__preinit_array_end+0xa0>
 804c047:	48 89 45 e8          	mov    %rax,-0x18(%rbp)
 804c04b:	48 8b 45 e8          	mov    -0x18(%rbp),%rax
 804c04f:	85 c0                	test   %eax,%eax
 804c051:	0f 84 05 00 00 00    	je     804c05c <tcc_realloc+0x3f>
 804c057:	e9 35 00 00 00       	jmpq   804c091 <tcc_realloc+0x74>
 804c05c:	48 8b 45 f0          	mov    -0x10(%rbp),%rax
 804c060:	48 b9 00 00 00 00 00 	movabs $0x0,%rcx
 804c067:	00 00 00 
 804c06a:	48 39 c8             	cmp    %rcx,%rax
 804c06d:	b8 00 00 00 00       	mov    $0x0,%eax
 804c072:	0f 95 c0             	setne  %al
 804c075:	85 c0                	test   %eax,%eax
 804c077:	0f 84 14 00 00 00    	je     804c091 <tcc_realloc+0x74>
 804c07d:	48 8d 05 34 d8 03 00 	lea    0x3d834(%rip),%rax        # 80898b8 <L.108>
 804c084:	48 89 c7             	mov    %rax,%rdi
 804c087:	b8 00 00 00 00       	mov    $0x0,%eax
 804c08c:	e8 36 16 00 00       	callq  804d6c7 <tcc_error>
 804c091:	48 8b 45 e8          	mov    -0x18(%rbp),%rax
 804c095:	e9 00 00 00 00       	jmpq   804c09a <tcc_realloc+0x7d>
 804c09a:	c9                   	leaveq 
 804c09b:	c3                   	retq   

000000000804c09c <tcc_strdup>:
 804c09c:	55                   	push   %rbp
 804c09d:	48 89 e5             	mov    %rsp,%rbp
 804c0a0:	48 81 ec 10 00 00 00 	sub    $0x10,%rsp
 804c0a7:	48 89 7d f8          	mov    %rdi,-0x8(%rbp)
 804c0ab:	48 8b 45 f8          	mov    -0x8(%rbp),%rax
 804c0af:	48 89 c7             	mov    %rax,%rdi
 804c0b2:	b8 00 00 00 00       	mov    $0x0,%eax
 804c0b7:	e8 24 b2 03 00       	callq  80872e0 <strlen>
 804c0bc:	83 c0 01             	add    $0x1,%eax
 804c0bf:	48 89 c1             	mov    %rax,%rcx
 804c0c2:	48 89 cf             	mov    %rcx,%rdi
 804c0c5:	b8 00 00 00 00       	mov    $0x0,%eax
 804c0ca:	e8 89 fe ff ff       	callq  804bf58 <tcc_malloc>
 804c0cf:	48 89 45 f0          	mov    %rax,-0x10(%rbp)
 804c0d3:	48 8b 45 f8          	mov    -0x8(%rbp),%rax
 804c0d7:	48 89 c6             	mov    %rax,%rsi
 804c0da:	48 8b 45 f0          	mov    -0x10(%rbp),%rax
 804c0de:	48 89 c7             	mov    %rax,%rdi
 804c0e1:	b8 00 00 00 00       	mov    $0x0,%eax
 804c0e6:	e8 75 b1 03 00       	callq  8087260 <strcpy>
 804c0eb:	48 8b 45 f0          	mov    -0x10(%rbp),%rax
 804c0ef:	e9 00 00 00 00       	jmpq   804c0f4 <tcc_strdup+0x58>
 804c0f4:	c9                   	leaveq 
 804c0f5:	c3                   	retq   

000000000804c0f6 <tcc_memstats>:
 804c0f6:	55                   	push   %rbp
 804c0f7:	48 89 e5             	mov    %rsp,%rbp
 804c0fa:	48 81 ec 00 00 00 00 	sub    $0x0,%rsp
 804c101:	c9                   	leaveq 
 804c102:	c3                   	retq   

000000000804c103 <dynarray_add>:
 804c103:	55                   	push   %rbp
 804c104:	48 89 e5             	mov    %rsp,%rbp
 804c107:	48 81 ec 30 00 00 00 	sub    $0x30,%rsp
 804c10e:	48 89 7d f8          	mov    %rdi,-0x8(%rbp)
 804c112:	48 89 75 f0          	mov    %rsi,-0x10(%rbp)
 804c116:	48 89 55 e8          	mov    %rdx,-0x18(%rbp)
 804c11a:	48 8b 45 f0          	mov    -0x10(%rbp),%rax
 804c11e:	8b 08                	mov    (%rax),%ecx
 804c120:	89 4d e4             	mov    %ecx,-0x1c(%rbp)
 804c123:	48 8b 45 f8          	mov    -0x8(%rbp),%rax
 804c127:	48 8b 08             	mov    (%rax),%rcx
 804c12a:	48 89 4d d8          	mov    %rcx,-0x28(%rbp)
 804c12e:	8b 45 e4             	mov    -0x1c(%rbp),%eax
 804c131:	83 e8 01             	sub    $0x1,%eax
 804c134:	8b 4d e4             	mov    -0x1c(%rbp),%ecx
 804c137:	48 21 c1             	and    %rax,%rcx
 804c13a:	83 f9 00             	cmp    $0x0,%ecx
 804c13d:	0f 85 52 00 00 00    	jne    804c195 <dynarray_add+0x92>
 804c143:	8b 45 e4             	mov    -0x1c(%rbp),%eax
 804c146:	85 c0                	test   %eax,%eax
 804c148:	0f 84 05 00 00 00    	je     804c153 <dynarray_add+0x50>
 804c14e:	e9 0d 00 00 00       	jmpq   804c160 <dynarray_add+0x5d>
 804c153:	b8 01 00 00 00       	mov    $0x1,%eax
 804c158:	89 45 e0             	mov    %eax,-0x20(%rbp)
 804c15b:	e9 09 00 00 00       	jmpq   804c169 <dynarray_add+0x66>
 804c160:	8b 45 e4             	mov    -0x1c(%rbp),%eax
 804c163:	c1 e0 01             	shl    $0x1,%eax
 804c166:	89 45 e0             	mov    %eax,-0x20(%rbp)
 804c169:	8b 45 e0             	mov    -0x20(%rbp),%eax
 804c16c:	c1 e0 03             	shl    $0x3,%eax
 804c16f:	48 89 c1             	mov    %rax,%rcx
 804c172:	48 89 ce             	mov    %rcx,%rsi
 804c175:	48 8b 45 d8          	mov    -0x28(%rbp),%rax
 804c179:	48 89 c7             	mov    %rax,%rdi
 804c17c:	b8 00 00 00 00       	mov    $0x0,%eax
 804c181:	e8 97 fe ff ff       	callq  804c01d <tcc_realloc>
 804c186:	48 89 45 d8          	mov    %rax,-0x28(%rbp)
 804c18a:	48 8b 45 f8          	mov    -0x8(%rbp),%rax
 804c18e:	48 8b 4d d8          	mov    -0x28(%rbp),%rcx
 804c192:	48 89 08             	mov    %rcx,(%rax)
 804c195:	8b 45 e4             	mov    -0x1c(%rbp),%eax
 804c198:	48 89 c1             	mov    %rax,%rcx
 804c19b:	83 c0 01             	add    $0x1,%eax
 804c19e:	89 45 e4             	mov    %eax,-0x1c(%rbp)
 804c1a1:	48 63 c9             	movslq %ecx,%rcx
 804c1a4:	48 89 c8             	mov    %rcx,%rax
 804c1a7:	48 c1 e0 03          	shl    $0x3,%rax
 804c1ab:	48 8b 4d d8          	mov    -0x28(%rbp),%rcx
 804c1af:	48 89 c2             	mov    %rax,%rdx
 804c1b2:	48 01 d1             	add    %rdx,%rcx
 804c1b5:	48 8b 45 e8          	mov    -0x18(%rbp),%rax
 804c1b9:	48 89 01             	mov    %rax,(%rcx)
 804c1bc:	48 8b 45 f0          	mov    -0x10(%rbp),%rax
 804c1c0:	8b 4d e4             	mov    -0x1c(%rbp),%ecx
 804c1c3:	89 08                	mov    %ecx,(%rax)
 804c1c5:	c9                   	leaveq 
 804c1c6:	c3                   	retq   

000000000804c1c7 <dynarray_reset>:
 804c1c7:	55                   	push   %rbp
 804c1c8:	48 89 e5             	mov    %rsp,%rbp
 804c1cb:	48 81 ec 20 00 00 00 	sub    $0x20,%rsp
 804c1d2:	48 89 7d f8          	mov    %rdi,-0x8(%rbp)
 804c1d6:	48 89 75 f0          	mov    %rsi,-0x10(%rbp)
 804c1da:	48 8b 45 f8          	mov    -0x8(%rbp),%rax
 804c1de:	48 8b 08             	mov    (%rax),%rcx
 804c1e1:	48 89 4d e8          	mov    %rcx,-0x18(%rbp)
 804c1e5:	48 8b 45 f0          	mov    -0x10(%rbp),%rax
 804c1e9:	8b 08                	mov    (%rax),%ecx
 804c1eb:	85 c9                	test   %ecx,%ecx
 804c1ed:	0f 84 4c 00 00 00    	je     804c23f <dynarray_reset+0x78>
 804c1f3:	e9 22 00 00 00       	jmpq   804c21a <dynarray_reset+0x53>
 804c1f8:	48 8b 45 e8          	mov    -0x18(%rbp),%rax
 804c1fc:	48 b9 08 00 00 00 00 	movabs $0x8,%rcx
 804c203:	00 00 00 
 804c206:	48 01 c8             	add    %rcx,%rax
 804c209:	48 89 45 e8          	mov    %rax,-0x18(%rbp)
 804c20d:	48 8b 45 f0          	mov    -0x10(%rbp),%rax
 804c211:	8b 08                	mov    (%rax),%ecx
 804c213:	83 c1 ff             	add    $0xffffffff,%ecx
 804c216:	89 08                	mov    %ecx,(%rax)
 804c218:	eb cb                	jmp    804c1e5 <dynarray_reset+0x1e>
 804c21a:	48 8b 45 e8          	mov    -0x18(%rbp),%rax
 804c21e:	48 8b 08             	mov    (%rax),%rcx
 804c221:	85 c9                	test   %ecx,%ecx
 804c223:	0f 84 14 00 00 00    	je     804c23d <dynarray_reset+0x76>
 804c229:	48 8b 45 e8          	mov    -0x18(%rbp),%rax
 804c22d:	48 8b 08             	mov    (%rax),%rcx
 804c230:	48 89 cf             	mov    %rcx,%rdi
 804c233:	b8 00 00 00 00       	mov    $0x0,%eax
 804c238:	e8 f9 fc ff ff       	callq  804bf36 <tcc_free>
 804c23d:	eb b9                	jmp    804c1f8 <dynarray_reset+0x31>
 804c23f:	48 8b 45 f8          	mov    -0x8(%rbp),%rax
 804c243:	48 8b 08             	mov    (%rax),%rcx
 804c246:	48 89 cf             	mov    %rcx,%rdi
 804c249:	b8 00 00 00 00       	mov    $0x0,%eax
 804c24e:	e8 e3 fc ff ff       	callq  804bf36 <tcc_free>
 804c253:	48 8b 45 f8          	mov    -0x8(%rbp),%rax
 804c257:	b9 00 00 00 00       	mov    $0x0,%ecx
 804c25c:	48 89 08             	mov    %rcx,(%rax)
 804c25f:	c9                   	leaveq 
 804c260:	c3                   	retq   

000000000804c261 <tcc_split_path>:
 804c261:	55                   	push   %rbp
 804c262:	48 89 e5             	mov    %rsp,%rbp
 804c265:	48 81 ec 60 10 00 00 	sub    $0x1060,%rsp
 804c26c:	48 89 7d f8          	mov    %rdi,-0x8(%rbp)
 804c270:	48 89 75 f0          	mov    %rsi,-0x10(%rbp)
 804c274:	48 89 55 e8          	mov    %rdx,-0x18(%rbp)
 804c278:	48 89 4d e0          	mov    %rcx,-0x20(%rbp)
 804c27c:	48 8d 45 b0          	lea    -0x50(%rbp),%rax
 804c280:	48 89 c7             	mov    %rax,%rdi
 804c283:	b8 00 00 00 00       	mov    $0x0,%eax
 804c288:	e8 3a 51 00 00       	callq  80513c7 <cstr_new>
 804c28d:	48 8b 45 e0          	mov    -0x20(%rbp),%rax
 804c291:	48 89 45 d8          	mov    %rax,-0x28(%rbp)
 804c295:	48 8b 45 d8          	mov    -0x28(%rbp),%rax
 804c299:	0f be 08             	movsbl (%rax),%ecx
 804c29c:	89 4d d4             	mov    %ecx,-0x2c(%rbp)
 804c29f:	8b 45 d4             	mov    -0x2c(%rbp),%eax
 804c2a2:	83 f8 00             	cmp    $0x0,%eax
 804c2a5:	0f 84 ee 00 00 00    	je     804c399 <tcc_split_path+0x138>
 804c2ab:	8b 45 d4             	mov    -0x2c(%rbp),%eax
 804c2ae:	83 f8 3a             	cmp    $0x3a,%eax
 804c2b1:	0f 84 e2 00 00 00    	je     804c399 <tcc_split_path+0x138>
 804c2b7:	e9 17 00 00 00       	jmpq   804c2d3 <tcc_split_path+0x72>
 804c2bc:	48 8b 45 d8          	mov    -0x28(%rbp),%rax
 804c2c0:	48 b9 01 00 00 00 00 	movabs $0x1,%rcx
 804c2c7:	00 00 00 
 804c2ca:	48 01 c8             	add    %rcx,%rax
 804c2cd:	48 89 45 d8          	mov    %rax,-0x28(%rbp)
 804c2d1:	eb c2                	jmp    804c295 <tcc_split_path+0x34>
 804c2d3:	8b 45 d4             	mov    -0x2c(%rbp),%eax
 804c2d6:	83 f8 7b             	cmp    $0x7b,%eax
 804c2d9:	0f 85 9e 00 00 00    	jne    804c37d <tcc_split_path+0x11c>
 804c2df:	48 8b 45 d8          	mov    -0x28(%rbp),%rax
 804c2e3:	48 b9 01 00 00 00 00 	movabs $0x1,%rcx
 804c2ea:	00 00 00 
 804c2ed:	48 01 c8             	add    %rcx,%rax
 804c2f0:	0f be 08             	movsbl (%rax),%ecx
 804c2f3:	85 c9                	test   %ecx,%ecx
 804c2f5:	0f 84 82 00 00 00    	je     804c37d <tcc_split_path+0x11c>
 804c2fb:	48 8b 45 d8          	mov    -0x28(%rbp),%rax
 804c2ff:	48 b9 02 00 00 00 00 	movabs $0x2,%rcx
 804c306:	00 00 00 
 804c309:	48 01 c8             	add    %rcx,%rax
 804c30c:	0f be 08             	movsbl (%rax),%ecx
 804c30f:	83 f9 7d             	cmp    $0x7d,%ecx
 804c312:	0f 85 65 00 00 00    	jne    804c37d <tcc_split_path+0x11c>
 804c318:	48 8b 45 d8          	mov    -0x28(%rbp),%rax
 804c31c:	48 b9 01 00 00 00 00 	movabs $0x1,%rcx
 804c323:	00 00 00 
 804c326:	48 01 c8             	add    %rcx,%rax
 804c329:	0f be 08             	movsbl (%rax),%ecx
 804c32c:	89 4d d4             	mov    %ecx,-0x2c(%rbp)
 804c32f:	48 8b 45 d8          	mov    -0x28(%rbp),%rax
 804c333:	48 b9 02 00 00 00 00 	movabs $0x2,%rcx
 804c33a:	00 00 00 
 804c33d:	48 01 c8             	add    %rcx,%rax
 804c340:	48 89 45 d8          	mov    %rax,-0x28(%rbp)
 804c344:	8b 45 d4             	mov    -0x2c(%rbp),%eax
 804c347:	83 f8 42             	cmp    $0x42,%eax
 804c34a:	0f 85 28 00 00 00    	jne    804c378 <tcc_split_path+0x117>
 804c350:	48 8b 45 f8          	mov    -0x8(%rbp),%rax
 804c354:	48 b9 50 01 00 00 00 	movabs $0x150,%rcx
 804c35b:	00 00 00 
 804c35e:	48 01 c8             	add    %rcx,%rax
 804c361:	48 8b 08             	mov    (%rax),%rcx
 804c364:	48 89 ce             	mov    %rcx,%rsi
 804c367:	48 8d 45 b0          	lea    -0x50(%rbp),%rax
 804c36b:	48 89 c7             	mov    %rax,%rdi
 804c36e:	b8 00 00 00 00       	mov    $0x0,%eax
 804c373:	e8 5d 4f 00 00       	callq  80512d5 <cstr_cat>
 804c378:	e9 17 00 00 00       	jmpq   804c394 <tcc_split_path+0x133>
 804c37d:	8b 45 d4             	mov    -0x2c(%rbp),%eax
 804c380:	48 89 c6             	mov    %rax,%rsi
 804c383:	48 8d 45 b0          	lea    -0x50(%rbp),%rax
 804c387:	48 89 c7             	mov    %rax,%rdi
 804c38a:	b8 00 00 00 00       	mov    $0x0,%eax
 804c38f:	e8 b9 4e 00 00       	callq  805124d <cstr_ccat>
 804c394:	e9 23 ff ff ff       	jmpq   804c2bc <tcc_split_path+0x5b>
 804c399:	b8 00 00 00 00       	mov    $0x0,%eax
 804c39e:	48 89 c6             	mov    %rax,%rsi
 804c3a1:	48 8d 45 b0          	lea    -0x50(%rbp),%rax
 804c3a5:	48 89 c7             	mov    %rax,%rdi
 804c3a8:	b8 00 00 00 00       	mov    $0x0,%eax
 804c3ad:	e8 9b 4e 00 00       	callq  805124d <cstr_ccat>
 804c3b2:	48 8d 85 a8 ef ff ff 	lea    -0x1058(%rbp),%rax
 804c3b9:	48 89 c6             	mov    %rax,%rsi
 804c3bc:	48 8b 45 b8          	mov    -0x48(%rbp),%rax
 804c3c0:	48 89 c7             	mov    %rax,%rdi
 804c3c3:	b8 00 00 00 00       	mov    $0x0,%eax
 804c3c8:	e8 83 b7 03 00       	callq  8087b50 <__preinit_array_end+0xb0>
 804c3cd:	85 c0                	test   %eax,%eax
 804c3cf:	0f 84 3c 00 00 00    	je     804c411 <tcc_split_path+0x1b0>
 804c3d5:	b8 00 00 00 00       	mov    $0x0,%eax
 804c3da:	89 45 b0             	mov    %eax,-0x50(%rbp)
 804c3dd:	48 8d 85 a8 ef ff ff 	lea    -0x1058(%rbp),%rax
 804c3e4:	48 89 c6             	mov    %rax,%rsi
 804c3e7:	48 8d 45 b0          	lea    -0x50(%rbp),%rax
 804c3eb:	48 89 c7             	mov    %rax,%rdi
 804c3ee:	b8 00 00 00 00       	mov    $0x0,%eax
 804c3f3:	e8 dd 4e 00 00       	callq  80512d5 <cstr_cat>
 804c3f8:	b8 00 00 00 00       	mov    $0x0,%eax
 804c3fd:	48 89 c6             	mov    %rax,%rsi
 804c400:	48 8d 45 b0          	lea    -0x50(%rbp),%rax
 804c404:	48 89 c7             	mov    %rax,%rdi
 804c407:	b8 00 00 00 00       	mov    $0x0,%eax
 804c40c:	e8 3c 4e 00 00       	callq  805124d <cstr_ccat>
 804c411:	b8 01 00 00 00       	mov    $0x1,%eax
 804c416:	89 45 a8             	mov    %eax,-0x58(%rbp)
 804c419:	b8 00 00 00 00       	mov    $0x0,%eax
 804c41e:	89 45 ac             	mov    %eax,-0x54(%rbp)
 804c421:	48 8b 45 e8          	mov    -0x18(%rbp),%rax
 804c425:	8b 4d ac             	mov    -0x54(%rbp),%ecx
 804c428:	8b 10                	mov    (%rax),%edx
 804c42a:	39 d1                	cmp    %edx,%ecx
 804c42c:	0f 8d 73 00 00 00    	jge    804c4a5 <tcc_split_path+0x244>
 804c432:	8b 45 a8             	mov    -0x58(%rbp),%eax
 804c435:	85 c0                	test   %eax,%eax
 804c437:	0f 84 68 00 00 00    	je     804c4a5 <tcc_split_path+0x244>
 804c43d:	e9 0e 00 00 00       	jmpq   804c450 <tcc_split_path+0x1ef>
 804c442:	8b 45 ac             	mov    -0x54(%rbp),%eax
 804c445:	48 89 c1             	mov    %rax,%rcx
 804c448:	83 c0 01             	add    $0x1,%eax
 804c44b:	89 45 ac             	mov    %eax,-0x54(%rbp)
 804c44e:	eb d1                	jmp    804c421 <tcc_split_path+0x1c0>
 804c450:	8b 45 a8             	mov    -0x58(%rbp),%eax
 804c453:	85 c0                	test   %eax,%eax
 804c455:	0f 84 40 00 00 00    	je     804c49b <tcc_split_path+0x23a>
 804c45b:	48 8b 45 f0          	mov    -0x10(%rbp),%rax
 804c45f:	8b 4d ac             	mov    -0x54(%rbp),%ecx
 804c462:	48 63 c9             	movslq %ecx,%rcx
 804c465:	48 89 ca             	mov    %rcx,%rdx
 804c468:	48 c1 e2 03          	shl    $0x3,%rdx
 804c46c:	48 8b 08             	mov    (%rax),%rcx
 804c46f:	48 89 d0             	mov    %rdx,%rax
 804c472:	48 01 c1             	add    %rax,%rcx
 804c475:	48 8b 01             	mov    (%rcx),%rax
 804c478:	48 89 c6             	mov    %rax,%rsi
 804c47b:	48 8b 45 b8          	mov    -0x48(%rbp),%rax
 804c47f:	48 89 c7             	mov    %rax,%rdi
 804c482:	b8 00 00 00 00       	mov    $0x0,%eax
 804c487:	e8 54 ad 03 00       	callq  80871e0 <strcmp>
 804c48c:	85 c0                	test   %eax,%eax
 804c48e:	0f 84 07 00 00 00    	je     804c49b <tcc_split_path+0x23a>
 804c494:	b8 01 00 00 00       	mov    $0x1,%eax
 804c499:	eb 05                	jmp    804c4a0 <tcc_split_path+0x23f>
 804c49b:	b8 00 00 00 00       	mov    $0x0,%eax
 804c4a0:	89 45 a8             	mov    %eax,-0x58(%rbp)
 804c4a3:	eb 9d                	jmp    804c442 <tcc_split_path+0x1e1>
 804c4a5:	8b 45 a8             	mov    -0x58(%rbp),%eax
 804c4a8:	85 c0                	test   %eax,%eax
 804c4aa:	0f 84 22 00 00 00    	je     804c4d2 <tcc_split_path+0x271>
 804c4b0:	48 8b 45 b8          	mov    -0x48(%rbp),%rax
 804c4b4:	49 89 c2             	mov    %rax,%r10
 804c4b7:	48 8b 45 e8          	mov    -0x18(%rbp),%rax
 804c4bb:	48 89 c6             	mov    %rax,%rsi
 804c4be:	48 8b 45 f0          	mov    -0x10(%rbp),%rax
 804c4c2:	48 89 c7             	mov    %rax,%rdi
 804c4c5:	4c 89 d2             	mov    %r10,%rdx
 804c4c8:	b8 00 00 00 00       	mov    $0x0,%eax
 804c4cd:	e8 31 fc ff ff       	callq  804c103 <dynarray_add>
 804c4d2:	48 8b 45 d8          	mov    -0x28(%rbp),%rax
 804c4d6:	48 b9 01 00 00 00 00 	movabs $0x1,%rcx
 804c4dd:	00 00 00 
 804c4e0:	48 01 c8             	add    %rcx,%rax
 804c4e3:	48 89 45 e0          	mov    %rax,-0x20(%rbp)
 804c4e7:	48 8b 45 d8          	mov    -0x28(%rbp),%rax
 804c4eb:	0f be 08             	movsbl (%rax),%ecx
 804c4ee:	85 c9                	test   %ecx,%ecx
 804c4f0:	0f 85 86 fd ff ff    	jne    804c27c <tcc_split_path+0x1b>
 804c4f6:	c9                   	leaveq 
 804c4f7:	c3                   	retq   

000000000804c4f8 <new_section>:
 804c4f8:	55                   	push   %rbp
 804c4f9:	48 89 e5             	mov    %rsp,%rbp
 804c4fc:	48 81 ec 30 00 00 00 	sub    $0x30,%rsp
 804c503:	48 89 7d f8          	mov    %rdi,-0x8(%rbp)
 804c507:	48 89 75 f0          	mov    %rsi,-0x10(%rbp)
 804c50b:	48 89 55 e8          	mov    %rdx,-0x18(%rbp)
 804c50f:	48 89 4d e0          	mov    %rcx,-0x20(%rbp)
 804c513:	48 8b 45 f0          	mov    -0x10(%rbp),%rax
 804c517:	48 89 c7             	mov    %rax,%rdi
 804c51a:	b8 00 00 00 00       	mov    $0x0,%eax
 804c51f:	e8 bc ad 03 00       	callq  80872e0 <strlen>
 804c524:	81 c0 80 00 00 00    	add    $0x80,%eax
 804c52a:	48 89 c1             	mov    %rax,%rcx
 804c52d:	48 89 cf             	mov    %rcx,%rdi
 804c530:	b8 00 00 00 00       	mov    $0x0,%eax
 804c535:	e8 92 fa ff ff       	callq  804bfcc <tcc_mallocz>
 804c53a:	48 89 45 d8          	mov    %rax,-0x28(%rbp)
 804c53e:	48 8b 45 d8          	mov    -0x28(%rbp),%rax
 804c542:	48 b9 78 00 00 00 00 	movabs $0x78,%rcx
 804c549:	00 00 00 
 804c54c:	48 01 c8             	add    %rcx,%rax
 804c54f:	48 8b 4d f0          	mov    -0x10(%rbp),%rcx
 804c553:	48 89 ce             	mov    %rcx,%rsi
 804c556:	48 89 c7             	mov    %rax,%rdi
 804c559:	b8 00 00 00 00       	mov    $0x0,%eax
 804c55e:	e8 fd ac 03 00       	callq  8087260 <strcpy>
 804c563:	48 8b 45 d8          	mov    -0x28(%rbp),%rax
 804c567:	48 b9 20 00 00 00 00 	movabs $0x20,%rcx
 804c56e:	00 00 00 
 804c571:	48 01 c8             	add    %rcx,%rax
 804c574:	8b 4d e8             	mov    -0x18(%rbp),%ecx
 804c577:	89 08                	mov    %ecx,(%rax)
 804c579:	48 8b 45 d8          	mov    -0x28(%rbp),%rax
 804c57d:	48 b9 24 00 00 00 00 	movabs $0x24,%rcx
 804c584:	00 00 00 
 804c587:	48 01 c8             	add    %rcx,%rax
 804c58a:	8b 4d e0             	mov    -0x20(%rbp),%ecx
 804c58d:	89 08                	mov    %ecx,(%rax)
 804c58f:	8b 45 e8             	mov    -0x18(%rbp),%eax
 804c592:	e9 05 00 00 00       	jmpq   804c59c <new_section+0xa4>
 804c597:	e9 09 00 00 00       	jmpq   804c5a5 <new_section+0xad>
 804c59c:	83 f8 05             	cmp    $0x5,%eax
 804c59f:	0f 85 05 00 00 00    	jne    804c5aa <new_section+0xb2>
 804c5a5:	e9 09 00 00 00       	jmpq   804c5b3 <new_section+0xbb>
 804c5aa:	83 f8 09             	cmp    $0x9,%eax
 804c5ad:	0f 85 05 00 00 00    	jne    804c5b8 <new_section+0xc0>
 804c5b3:	e9 09 00 00 00       	jmpq   804c5c1 <new_section+0xc9>
 804c5b8:	83 f8 04             	cmp    $0x4,%eax
 804c5bb:	0f 85 05 00 00 00    	jne    804c5c6 <new_section+0xce>
 804c5c1:	e9 09 00 00 00       	jmpq   804c5cf <new_section+0xd7>
 804c5c6:	83 f8 0b             	cmp    $0xb,%eax
 804c5c9:	0f 85 05 00 00 00    	jne    804c5d4 <new_section+0xdc>
 804c5cf:	e9 09 00 00 00       	jmpq   804c5dd <new_section+0xe5>
 804c5d4:	83 f8 02             	cmp    $0x2,%eax
 804c5d7:	0f 85 05 00 00 00    	jne    804c5e2 <new_section+0xea>
 804c5dd:	e9 09 00 00 00       	jmpq   804c5eb <new_section+0xf3>
 804c5e2:	83 f8 06             	cmp    $0x6,%eax
 804c5e5:	0f 85 22 00 00 00    	jne    804c60d <new_section+0x115>
 804c5eb:	48 8b 45 d8          	mov    -0x28(%rbp),%rax
 804c5ef:	48 b9 2c 00 00 00 00 	movabs $0x2c,%rcx
 804c5f6:	00 00 00 
 804c5f9:	48 01 c8             	add    %rcx,%rax
 804c5fc:	b9 04 00 00 00       	mov    $0x4,%ecx
 804c601:	89 08                	mov    %ecx,(%rax)
 804c603:	e9 48 00 00 00       	jmpq   804c650 <new_section+0x158>
 804c608:	e9 09 00 00 00       	jmpq   804c616 <new_section+0x11e>
 804c60d:	83 f8 03             	cmp    $0x3,%eax
 804c610:	0f 85 1d 00 00 00    	jne    804c633 <new_section+0x13b>
 804c616:	48 8b 45 d8          	mov    -0x28(%rbp),%rax
 804c61a:	48 b9 2c 00 00 00 00 	movabs $0x2c,%rcx
 804c621:	00 00 00 
 804c624:	48 01 c8             	add    %rcx,%rax
 804c627:	b9 01 00 00 00       	mov    $0x1,%ecx
 804c62c:	89 08                	mov    %ecx,(%rax)
 804c62e:	e9 1d 00 00 00       	jmpq   804c650 <new_section+0x158>
 804c633:	48 8b 45 d8          	mov    -0x28(%rbp),%rax
 804c637:	48 b9 2c 00 00 00 00 	movabs $0x2c,%rcx
 804c63e:	00 00 00 
 804c641:	48 01 c8             	add    %rcx,%rax
 804c644:	b9 20 00 00 00       	mov    $0x20,%ecx
 804c649:	89 08                	mov    %ecx,(%rax)
 804c64b:	e9 00 00 00 00       	jmpq   804c650 <new_section+0x158>
 804c650:	8b 45 e0             	mov    -0x20(%rbp),%eax
 804c653:	81 e0 00 00 00 80    	and    $0x80000000,%eax
 804c659:	85 c0                	test   %eax,%eax
 804c65b:	0f 84 41 00 00 00    	je     804c6a2 <new_section+0x1aa>
 804c661:	48 8b 45 f8          	mov    -0x8(%rbp),%rax
 804c665:	48 b9 88 00 00 00 00 	movabs $0x88,%rcx
 804c66c:	00 00 00 
 804c66f:	48 01 c8             	add    %rcx,%rax
 804c672:	48 8b 4d f8          	mov    -0x8(%rbp),%rcx
 804c676:	48 ba 90 00 00 00 00 	movabs $0x90,%rdx
 804c67d:	00 00 00 
 804c680:	48 01 d1             	add    %rdx,%rcx
 804c683:	48 8b 55 d8          	mov    -0x28(%rbp),%rdx
 804c687:	49 89 d2             	mov    %rdx,%r10
 804c68a:	48 89 ce             	mov    %rcx,%rsi
 804c68d:	48 89 c7             	mov    %rax,%rdi
 804c690:	4c 89 d2             	mov    %r10,%rdx
 804c693:	b8 00 00 00 00       	mov    $0x0,%eax
 804c698:	e8 66 fa ff ff       	callq  804c103 <dynarray_add>
 804c69d:	e9 62 00 00 00       	jmpq   804c704 <new_section+0x20c>
 804c6a2:	48 8b 45 d8          	mov    -0x28(%rbp),%rax
 804c6a6:	48 b9 1c 00 00 00 00 	movabs $0x1c,%rcx
 804c6ad:	00 00 00 
 804c6b0:	48 01 c8             	add    %rcx,%rax
 804c6b3:	48 8b 4d f8          	mov    -0x8(%rbp),%rcx
 804c6b7:	48 ba 80 00 00 00 00 	movabs $0x80,%rdx
 804c6be:	00 00 00 
 804c6c1:	48 01 d1             	add    %rdx,%rcx
 804c6c4:	8b 11                	mov    (%rcx),%edx
 804c6c6:	89 10                	mov    %edx,(%rax)
 804c6c8:	48 8b 45 f8          	mov    -0x8(%rbp),%rax
 804c6cc:	48 b9 78 00 00 00 00 	movabs $0x78,%rcx
 804c6d3:	00 00 00 
 804c6d6:	48 01 c8             	add    %rcx,%rax
 804c6d9:	48 8b 4d f8          	mov    -0x8(%rbp),%rcx
 804c6dd:	48 ba 80 00 00 00 00 	movabs $0x80,%rdx
 804c6e4:	00 00 00 
 804c6e7:	48 01 d1             	add    %rdx,%rcx
 804c6ea:	48 8b 55 d8          	mov    -0x28(%rbp),%rdx
 804c6ee:	49 89 d2             	mov    %rdx,%r10
 804c6f1:	48 89 ce             	mov    %rcx,%rsi
 804c6f4:	48 89 c7             	mov    %rax,%rdi
 804c6f7:	4c 89 d2             	mov    %r10,%rdx
 804c6fa:	b8 00 00 00 00       	mov    $0x0,%eax
 804c6ff:	e8 ff f9 ff ff       	callq  804c103 <dynarray_add>
 804c704:	48 8b 45 d8          	mov    -0x28(%rbp),%rax
 804c708:	e9 00 00 00 00       	jmpq   804c70d <new_section+0x215>
 804c70d:	c9                   	leaveq 
 804c70e:	c3                   	retq   

000000000804c70f <free_section>:
 804c70f:	55                   	push   %rbp
 804c710:	48 89 e5             	mov    %rsp,%rbp
 804c713:	48 81 ec 10 00 00 00 	sub    $0x10,%rsp
 804c71a:	48 89 7d f8          	mov    %rdi,-0x8(%rbp)
 804c71e:	48 8b 45 f8          	mov    -0x8(%rbp),%rax
 804c722:	48 b9 08 00 00 00 00 	movabs $0x8,%rcx
 804c729:	00 00 00 
 804c72c:	48 01 c8             	add    %rcx,%rax
 804c72f:	48 8b 08             	mov    (%rax),%rcx
 804c732:	48 89 cf             	mov    %rcx,%rdi
 804c735:	b8 00 00 00 00       	mov    $0x0,%eax
 804c73a:	e8 f7 f7 ff ff       	callq  804bf36 <tcc_free>
 804c73f:	c9                   	leaveq 
 804c740:	c3                   	retq   

000000000804c741 <section_realloc>:
 804c741:	55                   	push   %rbp
 804c742:	48 89 e5             	mov    %rsp,%rbp
 804c745:	48 81 ec 30 00 00 00 	sub    $0x30,%rsp
 804c74c:	48 89 7d f8          	mov    %rdi,-0x8(%rbp)
 804c750:	48 89 75 f0          	mov    %rsi,-0x10(%rbp)
 804c754:	48 8b 45 f8          	mov    -0x8(%rbp),%rax
 804c758:	48 b9 10 00 00 00 00 	movabs $0x10,%rcx
 804c75f:	00 00 00 
 804c762:	48 01 c8             	add    %rcx,%rax
 804c765:	48 8b 08             	mov    (%rax),%rcx
 804c768:	48 89 4d e8          	mov    %rcx,-0x18(%rbp)
 804c76c:	48 8b 45 e8          	mov    -0x18(%rbp),%rax
 804c770:	48 b9 00 00 00 00 00 	movabs $0x0,%rcx
 804c777:	00 00 00 
 804c77a:	48 39 c8             	cmp    %rcx,%rax
 804c77d:	0f 85 0e 00 00 00    	jne    804c791 <section_realloc+0x50>
 804c783:	48 b8 01 00 00 00 00 	movabs $0x1,%rax
 804c78a:	00 00 00 
 804c78d:	48 89 45 e8          	mov    %rax,-0x18(%rbp)
 804c791:	48 8b 45 e8          	mov    -0x18(%rbp),%rax
 804c795:	48 8b 4d f0          	mov    -0x10(%rbp),%rcx
 804c799:	48 39 c8             	cmp    %rcx,%rax
 804c79c:	0f 83 11 00 00 00    	jae    804c7b3 <section_realloc+0x72>
 804c7a2:	48 8b 45 e8          	mov    -0x18(%rbp),%rax
 804c7a6:	48 c1 e0 01          	shl    $0x1,%rax
 804c7aa:	48 89 c1             	mov    %rax,%rcx
 804c7ad:	48 89 4d e8          	mov    %rcx,-0x18(%rbp)
 804c7b1:	eb de                	jmp    804c791 <section_realloc+0x50>
 804c7b3:	48 8b 45 f8          	mov    -0x8(%rbp),%rax
 804c7b7:	48 b9 08 00 00 00 00 	movabs $0x8,%rcx
 804c7be:	00 00 00 
 804c7c1:	48 01 c8             	add    %rcx,%rax
 804c7c4:	48 8b 4d e8          	mov    -0x18(%rbp),%rcx
 804c7c8:	48 89 ce             	mov    %rcx,%rsi
 804c7cb:	48 8b 08             	mov    (%rax),%rcx
 804c7ce:	48 89 cf             	mov    %rcx,%rdi
 804c7d1:	b8 00 00 00 00       	mov    $0x0,%eax
 804c7d6:	e8 42 f8 ff ff       	callq  804c01d <tcc_realloc>
 804c7db:	48 89 45 e0          	mov    %rax,-0x20(%rbp)
 804c7df:	48 8b 45 f8          	mov    -0x8(%rbp),%rax
 804c7e3:	48 b9 10 00 00 00 00 	movabs $0x10,%rcx
 804c7ea:	00 00 00 
 804c7ed:	48 01 c8             	add    %rcx,%rax
 804c7f0:	48 8b 4d e0          	mov    -0x20(%rbp),%rcx
 804c7f4:	48 8b 10             	mov    (%rax),%rdx
 804c7f7:	48 01 d1             	add    %rdx,%rcx
 804c7fa:	48 8b 45 f8          	mov    -0x8(%rbp),%rax
 804c7fe:	48 ba 10 00 00 00 00 	movabs $0x10,%rdx
 804c805:	00 00 00 
 804c808:	48 01 d0             	add    %rdx,%rax
 804c80b:	48 8b 55 e8          	mov    -0x18(%rbp),%rdx
 804c80f:	48 89 4d d8          	mov    %rcx,-0x28(%rbp)
 804c813:	48 8b 08             	mov    (%rax),%rcx
 804c816:	48 29 ca             	sub    %rcx,%rdx
 804c819:	49 89 d2             	mov    %rdx,%r10
 804c81c:	b8 00 00 00 00       	mov    $0x0,%eax
 804c821:	48 89 c6             	mov    %rax,%rsi
 804c824:	48 8b 45 d8          	mov    -0x28(%rbp),%rax
 804c828:	48 89 c7             	mov    %rax,%rdi
 804c82b:	4c 89 d2             	mov    %r10,%rdx
 804c82e:	b8 00 00 00 00       	mov    $0x0,%eax
 804c833:	e8 78 a6 03 00       	callq  8086eb0 <memset>
 804c838:	48 8b 45 f8          	mov    -0x8(%rbp),%rax
 804c83c:	48 b9 08 00 00 00 00 	movabs $0x8,%rcx
 804c843:	00 00 00 
 804c846:	48 01 c8             	add    %rcx,%rax
 804c849:	48 8b 4d e0          	mov    -0x20(%rbp),%rcx
 804c84d:	48 89 08             	mov    %rcx,(%rax)
 804c850:	48 8b 45 f8          	mov    -0x8(%rbp),%rax
 804c854:	48 b9 10 00 00 00 00 	movabs $0x10,%rcx
 804c85b:	00 00 00 
 804c85e:	48 01 c8             	add    %rcx,%rax
 804c861:	48 8b 4d e8          	mov    -0x18(%rbp),%rcx
 804c865:	48 89 08             	mov    %rcx,(%rax)
 804c868:	c9                   	leaveq 
 804c869:	c3                   	retq   

000000000804c86a <section_ptr_add>:
 804c86a:	55                   	push   %rbp
 804c86b:	48 89 e5             	mov    %rsp,%rbp
 804c86e:	48 81 ec 20 00 00 00 	sub    $0x20,%rsp
 804c875:	48 89 7d f8          	mov    %rdi,-0x8(%rbp)
 804c879:	48 89 75 f0          	mov    %rsi,-0x10(%rbp)
 804c87d:	48 8b 45 f8          	mov    -0x8(%rbp),%rax
 804c881:	48 8b 08             	mov    (%rax),%rcx
 804c884:	48 89 4d e8          	mov    %rcx,-0x18(%rbp)
 804c888:	48 8b 45 e8          	mov    -0x18(%rbp),%rax
 804c88c:	48 8b 4d f0          	mov    -0x10(%rbp),%rcx
 804c890:	48 01 c8             	add    %rcx,%rax
 804c893:	48 89 c1             	mov    %rax,%rcx
 804c896:	48 89 4d e0          	mov    %rcx,-0x20(%rbp)
 804c89a:	48 8b 45 f8          	mov    -0x8(%rbp),%rax
 804c89e:	48 b9 10 00 00 00 00 	movabs $0x10,%rcx
 804c8a5:	00 00 00 
 804c8a8:	48 01 c8             	add    %rcx,%rax
 804c8ab:	48 8b 4d e0          	mov    -0x20(%rbp),%rcx
 804c8af:	48 8b 10             	mov    (%rax),%rdx
 804c8b2:	48 39 d1             	cmp    %rdx,%rcx
 804c8b5:	0f 86 18 00 00 00    	jbe    804c8d3 <section_ptr_add+0x69>
 804c8bb:	48 8b 45 e0          	mov    -0x20(%rbp),%rax
 804c8bf:	48 89 c6             	mov    %rax,%rsi
 804c8c2:	48 8b 45 f8          	mov    -0x8(%rbp),%rax
 804c8c6:	48 89 c7             	mov    %rax,%rdi
 804c8c9:	b8 00 00 00 00       	mov    $0x0,%eax
 804c8ce:	e8 6e fe ff ff       	callq  804c741 <section_realloc>
 804c8d3:	48 8b 45 f8          	mov    -0x8(%rbp),%rax
 804c8d7:	48 8b 4d e0          	mov    -0x20(%rbp),%rcx
 804c8db:	48 89 08             	mov    %rcx,(%rax)
 804c8de:	48 8b 45 f8          	mov    -0x8(%rbp),%rax
 804c8e2:	48 b9 08 00 00 00 00 	movabs $0x8,%rcx
 804c8e9:	00 00 00 
 804c8ec:	48 01 c8             	add    %rcx,%rax
 804c8ef:	48 8b 08             	mov    (%rax),%rcx
 804c8f2:	48 8b 45 e8          	mov    -0x18(%rbp),%rax
 804c8f6:	48 01 c1             	add    %rax,%rcx
 804c8f9:	48 89 c8             	mov    %rcx,%rax
 804c8fc:	e9 00 00 00 00       	jmpq   804c901 <section_ptr_add+0x97>
 804c901:	c9                   	leaveq 
 804c902:	c3                   	retq   

000000000804c903 <section_reserve>:
 804c903:	55                   	push   %rbp
 804c904:	48 89 e5             	mov    %rsp,%rbp
 804c907:	48 81 ec 10 00 00 00 	sub    $0x10,%rsp
 804c90e:	48 89 7d f8          	mov    %rdi,-0x8(%rbp)
 804c912:	48 89 75 f0          	mov    %rsi,-0x10(%rbp)
 804c916:	48 8b 45 f8          	mov    -0x8(%rbp),%rax
 804c91a:	48 b9 10 00 00 00 00 	movabs $0x10,%rcx
 804c921:	00 00 00 
 804c924:	48 01 c8             	add    %rcx,%rax
 804c927:	48 8b 4d f0          	mov    -0x10(%rbp),%rcx
 804c92b:	48 8b 10             	mov    (%rax),%rdx
 804c92e:	48 39 d1             	cmp    %rdx,%rcx
 804c931:	0f 86 18 00 00 00    	jbe    804c94f <section_reserve+0x4c>
 804c937:	48 8b 45 f0          	mov    -0x10(%rbp),%rax
 804c93b:	48 89 c6             	mov    %rax,%rsi
 804c93e:	48 8b 45 f8          	mov    -0x8(%rbp),%rax
 804c942:	48 89 c7             	mov    %rax,%rdi
 804c945:	b8 00 00 00 00       	mov    $0x0,%eax
 804c94a:	e8 f2 fd ff ff       	callq  804c741 <section_realloc>
 804c94f:	48 8b 45 f8          	mov    -0x8(%rbp),%rax
 804c953:	48 8b 4d f0          	mov    -0x10(%rbp),%rcx
 804c957:	48 8b 10             	mov    (%rax),%rdx
 804c95a:	48 39 d1             	cmp    %rdx,%rcx
 804c95d:	0f 86 0b 00 00 00    	jbe    804c96e <section_reserve+0x6b>
 804c963:	48 8b 45 f8          	mov    -0x8(%rbp),%rax
 804c967:	48 8b 4d f0          	mov    -0x10(%rbp),%rcx
 804c96b:	48 89 08             	mov    %rcx,(%rax)
 804c96e:	c9                   	leaveq 
 804c96f:	c3                   	retq   

000000000804c970 <find_section>:
 804c970:	55                   	push   %rbp
 804c971:	48 89 e5             	mov    %rsp,%rbp
 804c974:	48 81 ec 20 00 00 00 	sub    $0x20,%rsp
 804c97b:	48 89 7d f8          	mov    %rdi,-0x8(%rbp)
 804c97f:	48 89 75 f0          	mov    %rsi,-0x10(%rbp)
 804c983:	b8 01 00 00 00       	mov    $0x1,%eax
 804c988:	89 45 e4             	mov    %eax,-0x1c(%rbp)
 804c98b:	48 8b 45 f8          	mov    -0x8(%rbp),%rax
 804c98f:	48 b9 80 00 00 00 00 	movabs $0x80,%rcx
 804c996:	00 00 00 
 804c999:	48 01 c8             	add    %rcx,%rax
 804c99c:	8b 4d e4             	mov    -0x1c(%rbp),%ecx
 804c99f:	8b 10                	mov    (%rax),%edx
 804c9a1:	39 d1                	cmp    %edx,%ecx
 804c9a3:	0f 8d 7e 00 00 00    	jge    804ca27 <find_section+0xb7>
 804c9a9:	e9 0e 00 00 00       	jmpq   804c9bc <find_section+0x4c>
 804c9ae:	8b 45 e4             	mov    -0x1c(%rbp),%eax
 804c9b1:	48 89 c1             	mov    %rax,%rcx
 804c9b4:	83 c0 01             	add    $0x1,%eax
 804c9b7:	89 45 e4             	mov    %eax,-0x1c(%rbp)
 804c9ba:	eb cf                	jmp    804c98b <find_section+0x1b>
 804c9bc:	48 8b 45 f8          	mov    -0x8(%rbp),%rax
 804c9c0:	48 b9 78 00 00 00 00 	movabs $0x78,%rcx
 804c9c7:	00 00 00 
 804c9ca:	48 01 c8             	add    %rcx,%rax
 804c9cd:	8b 4d e4             	mov    -0x1c(%rbp),%ecx
 804c9d0:	48 63 c9             	movslq %ecx,%rcx
 804c9d3:	48 89 ca             	mov    %rcx,%rdx
 804c9d6:	48 c1 e2 03          	shl    $0x3,%rdx
 804c9da:	48 8b 08             	mov    (%rax),%rcx
 804c9dd:	48 89 d0             	mov    %rdx,%rax
 804c9e0:	48 01 c1             	add    %rax,%rcx
 804c9e3:	48 8b 01             	mov    (%rcx),%rax
 804c9e6:	48 89 45 e8          	mov    %rax,-0x18(%rbp)
 804c9ea:	48 8b 45 e8          	mov    -0x18(%rbp),%rax
 804c9ee:	48 b9 78 00 00 00 00 	movabs $0x78,%rcx
 804c9f5:	00 00 00 
 804c9f8:	48 01 c8             	add    %rcx,%rax
 804c9fb:	48 89 c6             	mov    %rax,%rsi
 804c9fe:	48 8b 45 f0          	mov    -0x10(%rbp),%rax
 804ca02:	48 89 c7             	mov    %rax,%rdi
 804ca05:	b8 00 00 00 00       	mov    $0x0,%eax
 804ca0a:	e8 d1 a7 03 00       	callq  80871e0 <strcmp>
 804ca0f:	85 c0                	test   %eax,%eax
 804ca11:	0f 84 05 00 00 00    	je     804ca1c <find_section+0xac>
 804ca17:	e9 09 00 00 00       	jmpq   804ca25 <find_section+0xb5>
 804ca1c:	48 8b 45 e8          	mov    -0x18(%rbp),%rax
 804ca20:	e9 35 00 00 00       	jmpq   804ca5a <find_section+0xea>
 804ca25:	eb 87                	jmp    804c9ae <find_section+0x3e>
 804ca27:	b8 02 00 00 00       	mov    $0x2,%eax
 804ca2c:	49 89 c3             	mov    %rax,%r11
 804ca2f:	b8 01 00 00 00       	mov    $0x1,%eax
 804ca34:	49 89 c2             	mov    %rax,%r10
 804ca37:	48 8b 45 f0          	mov    -0x10(%rbp),%rax
 804ca3b:	48 89 c6             	mov    %rax,%rsi
 804ca3e:	48 8b 45 f8          	mov    -0x8(%rbp),%rax
 804ca42:	48 89 c7             	mov    %rax,%rdi
 804ca45:	4c 89 d2             	mov    %r10,%rdx
 804ca48:	4c 89 d9             	mov    %r11,%rcx
 804ca4b:	b8 00 00 00 00       	mov    $0x0,%eax
 804ca50:	e8 a3 fa ff ff       	callq  804c4f8 <new_section>
 804ca55:	e9 00 00 00 00       	jmpq   804ca5a <find_section+0xea>
 804ca5a:	c9                   	leaveq 
 804ca5b:	c3                   	retq   

000000000804ca5c <put_extern_sym2>:
 804ca5c:	55                   	push   %rbp
 804ca5d:	48 89 e5             	mov    %rsp,%rbp
 804ca60:	48 81 ec 60 01 00 00 	sub    $0x160,%rsp
 804ca67:	48 89 7d f8          	mov    %rdi,-0x8(%rbp)
 804ca6b:	48 89 75 f0          	mov    %rsi,-0x10(%rbp)
 804ca6f:	48 89 55 e8          	mov    %rdx,-0x18(%rbp)
 804ca73:	48 89 4d e0          	mov    %rcx,-0x20(%rbp)
 804ca77:	4c 89 45 d8          	mov    %r8,-0x28(%rbp)
 804ca7b:	48 8b 45 f0          	mov    -0x10(%rbp),%rax
 804ca7f:	48 89 c1             	mov    %rax,%rcx
 804ca82:	48 b8 00 00 00 00 00 	movabs $0x0,%rax
 804ca89:	00 00 00 
 804ca8c:	48 39 c1             	cmp    %rax,%rcx
 804ca8f:	0f 85 0d 00 00 00    	jne    804caa2 <put_extern_sym2+0x46>
 804ca95:	b8 00 00 00 00       	mov    $0x0,%eax
 804ca9a:	89 45 cc             	mov    %eax,-0x34(%rbp)
 804ca9d:	e9 3d 00 00 00       	jmpq   804cadf <put_extern_sym2+0x83>
 804caa2:	48 8b 45 f0          	mov    -0x10(%rbp),%rax
 804caa6:	48 89 c1             	mov    %rax,%rcx
 804caa9:	48 b8 01 00 00 00 00 	movabs $0x1,%rax
 804cab0:	00 00 00 
 804cab3:	48 39 c1             	cmp    %rax,%rcx
 804cab6:	0f 85 0d 00 00 00    	jne    804cac9 <put_extern_sym2+0x6d>
 804cabc:	b8 f1 ff 00 00       	mov    $0xfff1,%eax
 804cac1:	89 45 cc             	mov    %eax,-0x34(%rbp)
 804cac4:	e9 16 00 00 00       	jmpq   804cadf <put_extern_sym2+0x83>
 804cac9:	48 8b 45 f0          	mov    -0x10(%rbp),%rax
 804cacd:	48 b9 1c 00 00 00 00 	movabs $0x1c,%rcx
 804cad4:	00 00 00 
 804cad7:	48 01 c8             	add    %rcx,%rax
 804cada:	8b 08                	mov    (%rax),%ecx
 804cadc:	89 4d cc             	mov    %ecx,-0x34(%rbp)
 804cadf:	48 8b 45 f8          	mov    -0x8(%rbp),%rax
 804cae3:	48 b9 20 00 00 00 00 	movabs $0x20,%rcx
 804caea:	00 00 00 
 804caed:	48 01 c8             	add    %rcx,%rax
 804caf0:	8b 08                	mov    (%rax),%ecx
 804caf2:	83 e1 0f             	and    $0xf,%ecx
 804caf5:	83 f9 06             	cmp    $0x6,%ecx
 804caf8:	0f 85 0d 00 00 00    	jne    804cb0b <put_extern_sym2+0xaf>
 804cafe:	b8 02 00 00 00       	mov    $0x2,%eax
 804cb03:	89 45 d4             	mov    %eax,-0x2c(%rbp)
 804cb06:	e9 34 00 00 00       	jmpq   804cb3f <put_extern_sym2+0xe3>
 804cb0b:	48 8b 45 f8          	mov    -0x8(%rbp),%rax
 804cb0f:	48 b9 20 00 00 00 00 	movabs $0x20,%rcx
 804cb16:	00 00 00 
 804cb19:	48 01 c8             	add    %rcx,%rax
 804cb1c:	8b 08                	mov    (%rax),%ecx
 804cb1e:	83 e1 0f             	and    $0xf,%ecx
 804cb21:	83 f9 03             	cmp    $0x3,%ecx
 804cb24:	0f 85 0d 00 00 00    	jne    804cb37 <put_extern_sym2+0xdb>
 804cb2a:	b8 00 00 00 00       	mov    $0x0,%eax
 804cb2f:	89 45 d4             	mov    %eax,-0x2c(%rbp)
 804cb32:	e9 08 00 00 00       	jmpq   804cb3f <put_extern_sym2+0xe3>
 804cb37:	b8 01 00 00 00       	mov    $0x1,%eax
 804cb3c:	89 45 d4             	mov    %eax,-0x2c(%rbp)
 804cb3f:	48 8b 45 f8          	mov    -0x8(%rbp),%rax
 804cb43:	48 b9 20 00 00 00 00 	movabs $0x20,%rcx
 804cb4a:	00 00 00 
 804cb4d:	48 01 c8             	add    %rcx,%rax
 804cb50:	8b 08                	mov    (%rax),%ecx
 804cb52:	81 e1 00 01 00 00    	and    $0x100,%ecx
 804cb58:	85 c9                	test   %ecx,%ecx
 804cb5a:	0f 84 0d 00 00 00    	je     804cb6d <put_extern_sym2+0x111>
 804cb60:	b8 00 00 00 00       	mov    $0x0,%eax
 804cb65:	89 45 d0             	mov    %eax,-0x30(%rbp)
 804cb68:	e9 36 00 00 00       	jmpq   804cba3 <put_extern_sym2+0x147>
 804cb6d:	48 8b 45 f8          	mov    -0x8(%rbp),%rax
 804cb71:	48 b9 20 00 00 00 00 	movabs $0x20,%rcx
 804cb78:	00 00 00 
 804cb7b:	48 01 c8             	add    %rcx,%rax
 804cb7e:	8b 08                	mov    (%rax),%ecx
 804cb80:	81 e1 00 00 01 00    	and    $0x10000,%ecx
 804cb86:	85 c9                	test   %ecx,%ecx
 804cb88:	0f 84 0d 00 00 00    	je     804cb9b <put_extern_sym2+0x13f>
 804cb8e:	b8 02 00 00 00       	mov    $0x2,%eax
 804cb93:	89 45 d0             	mov    %eax,-0x30(%rbp)
 804cb96:	e9 08 00 00 00       	jmpq   804cba3 <put_extern_sym2+0x147>
 804cb9b:	b8 01 00 00 00       	mov    $0x1,%eax
 804cba0:	89 45 d0             	mov    %eax,-0x30(%rbp)
 804cba3:	48 8b 45 f8          	mov    -0x8(%rbp),%rax
 804cba7:	48 b9 18 00 00 00 00 	movabs $0x18,%rcx
 804cbae:	00 00 00 
 804cbb1:	48 01 c8             	add    %rcx,%rax
 804cbb4:	48 8b 08             	mov    (%rax),%rcx
 804cbb7:	48 b8 00 00 00 00 00 	movabs $0x0,%rax
 804cbbe:	00 00 00 
 804cbc1:	48 39 c1             	cmp    %rax,%rcx
 804cbc4:	b8 00 00 00 00       	mov    $0x0,%eax
 804cbc9:	0f 95 c0             	setne  %al
 804cbcc:	85 c0                	test   %eax,%eax
 804cbce:	0f 84 05 00 00 00    	je     804cbd9 <put_extern_sym2+0x17d>
 804cbd4:	e9 49 01 00 00       	jmpq   804cd22 <put_extern_sym2+0x2c6>
 804cbd9:	48 8b 45 f8          	mov    -0x8(%rbp),%rax
 804cbdd:	b9 00 00 00 00       	mov    $0x0,%ecx
 804cbe2:	48 89 ce             	mov    %rcx,%rsi
 804cbe5:	8b 08                	mov    (%rax),%ecx
 804cbe7:	48 89 cf             	mov    %rcx,%rdi
 804cbea:	b8 00 00 00 00       	mov    $0x0,%eax
 804cbef:	e8 c0 4c 00 00       	callq  80518b4 <get_tok_str>
 804cbf4:	48 89 45 b0          	mov    %rax,-0x50(%rbp)
 804cbf8:	b8 00 00 00 00       	mov    $0x0,%eax
 804cbfd:	89 45 c4             	mov    %eax,-0x3c(%rbp)
 804cc00:	48 8b 05 89 12 04 00 	mov    0x41289(%rip),%rax        # 808de90 <_GLOBAL_OFFSET_TABLE_+0x210>
 804cc07:	48 8b 00             	mov    (%rax),%rax
 804cc0a:	48 b9 30 01 00 00 00 	movabs $0x130,%rcx
 804cc11:	00 00 00 
 804cc14:	48 01 c8             	add    %rcx,%rax
 804cc17:	8b 08                	mov    (%rax),%ecx
 804cc19:	85 c9                	test   %ecx,%ecx
 804cc1b:	0f 84 47 00 00 00    	je     804cc68 <put_extern_sym2+0x20c>
 804cc21:	8b 45 d8             	mov    -0x28(%rbp),%eax
 804cc24:	85 c0                	test   %eax,%eax
 804cc26:	0f 84 3c 00 00 00    	je     804cc68 <put_extern_sym2+0x20c>
 804cc2c:	b8 5f 00 00 00       	mov    $0x5f,%eax
 804cc31:	88 85 b0 fe ff ff    	mov    %al,-0x150(%rbp)
 804cc37:	48 8b 45 b0          	mov    -0x50(%rbp),%rax
 804cc3b:	49 89 c2             	mov    %rax,%r10
 804cc3e:	b8 ff 00 00 00       	mov    $0xff,%eax
 804cc43:	48 89 c6             	mov    %rax,%rsi
 804cc46:	48 8d 85 b1 fe ff ff 	lea    -0x14f(%rbp),%rax
 804cc4d:	48 89 c7             	mov    %rax,%rdi
 804cc50:	4c 89 d2             	mov    %r10,%rdx
 804cc53:	b8 00 00 00 00       	mov    $0x0,%eax
 804cc58:	e8 46 f0 ff ff       	callq  804bca3 <pstrcpy>
 804cc5d:	48 8d 85 b0 fe ff ff 	lea    -0x150(%rbp),%rax
 804cc64:	48 89 45 b0          	mov    %rax,-0x50(%rbp)
 804cc68:	48 8b 45 f8          	mov    -0x8(%rbp),%rax
 804cc6c:	48 b9 08 00 00 00 00 	movabs $0x8,%rcx
 804cc73:	00 00 00 
 804cc76:	48 01 c8             	add    %rcx,%rax
 804cc79:	48 8b 08             	mov    (%rax),%rcx
 804cc7c:	85 c9                	test   %ecx,%ecx
 804cc7e:	0f 84 18 00 00 00    	je     804cc9c <put_extern_sym2+0x240>
 804cc84:	48 8b 45 f8          	mov    -0x8(%rbp),%rax
 804cc88:	48 b9 08 00 00 00 00 	movabs $0x8,%rcx
 804cc8f:	00 00 00 
 804cc92:	48 01 c8             	add    %rcx,%rax
 804cc95:	48 8b 08             	mov    (%rax),%rcx
 804cc98:	48 89 4d b0          	mov    %rcx,-0x50(%rbp)
 804cc9c:	8b 45 d0             	mov    -0x30(%rbp),%eax
 804cc9f:	c1 e0 04             	shl    $0x4,%eax
 804cca2:	8b 4d d4             	mov    -0x2c(%rbp),%ecx
 804cca5:	83 e1 0f             	and    $0xf,%ecx
 804cca8:	48 01 c8             	add    %rcx,%rax
 804ccab:	89 45 c8             	mov    %eax,-0x38(%rbp)
 804ccae:	48 8b 45 f8          	mov    -0x8(%rbp),%rax
 804ccb2:	48 b9 18 00 00 00 00 	movabs $0x18,%rcx
 804ccb9:	00 00 00 
 804ccbc:	48 01 c8             	add    %rcx,%rax
 804ccbf:	50                   	push   %rax
 804ccc0:	48 8b 4d b0          	mov    -0x50(%rbp),%rcx
 804ccc4:	51                   	push   %rcx
 804ccc5:	8b 4d cc             	mov    -0x34(%rbp),%ecx
 804ccc8:	49 89 c9             	mov    %rcx,%r9
 804cccb:	8b 4d c4             	mov    -0x3c(%rbp),%ecx
 804ccce:	49 89 c8             	mov    %rcx,%r8
 804ccd1:	8b 4d c8             	mov    -0x38(%rbp),%ecx
 804ccd4:	49 89 cb             	mov    %rcx,%r11
 804ccd7:	48 8b 4d e0          	mov    -0x20(%rbp),%rcx
 804ccdb:	49 89 ca             	mov    %rcx,%r10
 804ccde:	48 8b 4d e8          	mov    -0x18(%rbp),%rcx
 804cce2:	48 89 ce             	mov    %rcx,%rsi
 804cce5:	48 8b 0d ac 11 04 00 	mov    0x411ac(%rip),%rcx        # 808de98 <_GLOBAL_OFFSET_TABLE_+0x218>
 804ccec:	48 8b 09             	mov    (%rcx),%rcx
 804ccef:	48 89 cf             	mov    %rcx,%rdi
 804ccf2:	48 89 85 a8 fe ff ff 	mov    %rax,-0x158(%rbp)
 804ccf9:	4c 89 d2             	mov    %r10,%rdx
 804ccfc:	4c 89 d9             	mov    %r11,%rcx
 804ccff:	b8 00 00 00 00       	mov    $0x0,%eax
 804cd04:	e8 15 15 02 00       	callq  806e21e <add_elf_sym>
 804cd09:	48 83 c4 10          	add    $0x10,%rsp
 804cd0d:	48 63 c0             	movslq %eax,%rax
 804cd10:	48 89 c1             	mov    %rax,%rcx
 804cd13:	48 8b 85 a8 fe ff ff 	mov    -0x158(%rbp),%rax
 804cd1a:	48 89 08             	mov    %rcx,(%rax)
 804cd1d:	e9 8e 00 00 00       	jmpq   804cdb0 <put_extern_sym2+0x354>
 804cd22:	48 8b 05 6f 11 04 00 	mov    0x4116f(%rip),%rax        # 808de98 <_GLOBAL_OFFSET_TABLE_+0x218>
 804cd29:	48 8b 00             	mov    (%rax),%rax
 804cd2c:	48 b9 08 00 00 00 00 	movabs $0x8,%rcx
 804cd33:	00 00 00 
 804cd36:	48 01 c8             	add    %rcx,%rax
 804cd39:	48 8b 4d f8          	mov    -0x8(%rbp),%rcx
 804cd3d:	48 ba 18 00 00 00 00 	movabs $0x18,%rdx
 804cd44:	00 00 00 
 804cd47:	48 01 d1             	add    %rdx,%rcx
 804cd4a:	48 8b 11             	mov    (%rcx),%rdx
 804cd4d:	48 b9 18 00 00 00 00 	movabs $0x18,%rcx
 804cd54:	00 00 00 
 804cd57:	48 0f af d1          	imul   %rcx,%rdx
 804cd5b:	48 8b 08             	mov    (%rax),%rcx
 804cd5e:	48 89 d0             	mov    %rdx,%rax
 804cd61:	48 01 c1             	add    %rax,%rcx
 804cd64:	48 89 4d b8          	mov    %rcx,-0x48(%rbp)
 804cd68:	48 8b 45 b8          	mov    -0x48(%rbp),%rax
 804cd6c:	48 b9 08 00 00 00 00 	movabs $0x8,%rcx
 804cd73:	00 00 00 
 804cd76:	48 01 c8             	add    %rcx,%rax
 804cd79:	48 8b 4d e8          	mov    -0x18(%rbp),%rcx
 804cd7d:	48 89 08             	mov    %rcx,(%rax)
 804cd80:	48 8b 45 b8          	mov    -0x48(%rbp),%rax
 804cd84:	48 b9 10 00 00 00 00 	movabs $0x10,%rcx
 804cd8b:	00 00 00 
 804cd8e:	48 01 c8             	add    %rcx,%rax
 804cd91:	48 8b 4d e0          	mov    -0x20(%rbp),%rcx
 804cd95:	48 89 08             	mov    %rcx,(%rax)
 804cd98:	48 8b 45 b8          	mov    -0x48(%rbp),%rax
 804cd9c:	48 b9 06 00 00 00 00 	movabs $0x6,%rcx
 804cda3:	00 00 00 
 804cda6:	48 01 c8             	add    %rcx,%rax
 804cda9:	0f b7 4d cc          	movzwl -0x34(%rbp),%ecx
 804cdad:	66 89 08             	mov    %cx,(%rax)
 804cdb0:	c9                   	leaveq 
 804cdb1:	c3                   	retq   

000000000804cdb2 <put_extern_sym>:
 804cdb2:	55                   	push   %rbp
 804cdb3:	48 89 e5             	mov    %rsp,%rbp
 804cdb6:	48 81 ec 20 00 00 00 	sub    $0x20,%rsp
 804cdbd:	48 89 7d f8          	mov    %rdi,-0x8(%rbp)
 804cdc1:	48 89 75 f0          	mov    %rsi,-0x10(%rbp)
 804cdc5:	48 89 55 e8          	mov    %rdx,-0x18(%rbp)
 804cdc9:	48 89 4d e0          	mov    %rcx,-0x20(%rbp)
 804cdcd:	b8 01 00 00 00       	mov    $0x1,%eax
 804cdd2:	49 89 c0             	mov    %rax,%r8
 804cdd5:	48 8b 45 e0          	mov    -0x20(%rbp),%rax
 804cdd9:	49 89 c3             	mov    %rax,%r11
 804cddc:	48 8b 45 e8          	mov    -0x18(%rbp),%rax
 804cde0:	49 89 c2             	mov    %rax,%r10
 804cde3:	48 8b 45 f0          	mov    -0x10(%rbp),%rax
 804cde7:	48 89 c6             	mov    %rax,%rsi
 804cdea:	48 8b 45 f8          	mov    -0x8(%rbp),%rax
 804cdee:	48 89 c7             	mov    %rax,%rdi
 804cdf1:	4c 89 d2             	mov    %r10,%rdx
 804cdf4:	4c 89 d9             	mov    %r11,%rcx
 804cdf7:	b8 00 00 00 00       	mov    $0x0,%eax
 804cdfc:	e8 5b fc ff ff       	callq  804ca5c <put_extern_sym2>
 804ce01:	c9                   	leaveq 
 804ce02:	c3                   	retq   

000000000804ce03 <greloc>:
 804ce03:	55                   	push   %rbp
 804ce04:	48 89 e5             	mov    %rsp,%rbp
 804ce07:	48 81 ec 30 00 00 00 	sub    $0x30,%rsp
 804ce0e:	48 89 7d f8          	mov    %rdi,-0x8(%rbp)
 804ce12:	48 89 75 f0          	mov    %rsi,-0x10(%rbp)
 804ce16:	48 89 55 e8          	mov    %rdx,-0x18(%rbp)
 804ce1a:	48 89 4d e0          	mov    %rcx,-0x20(%rbp)
 804ce1e:	b8 00 00 00 00       	mov    $0x0,%eax
 804ce23:	89 45 dc             	mov    %eax,-0x24(%rbp)
 804ce26:	48 8b 45 f0          	mov    -0x10(%rbp),%rax
 804ce2a:	85 c0                	test   %eax,%eax
 804ce2c:	0f 84 77 00 00 00    	je     804cea9 <greloc+0xa6>
 804ce32:	48 8b 45 f0          	mov    -0x10(%rbp),%rax
 804ce36:	48 b9 18 00 00 00 00 	movabs $0x18,%rcx
 804ce3d:	00 00 00 
 804ce40:	48 01 c8             	add    %rcx,%rax
 804ce43:	48 b9 00 00 00 00 00 	movabs $0x0,%rcx
 804ce4a:	00 00 00 
 804ce4d:	48 8b 10             	mov    (%rax),%rdx
 804ce50:	48 39 d1             	cmp    %rdx,%rcx
 804ce53:	0f 85 39 00 00 00    	jne    804ce92 <greloc+0x8f>
 804ce59:	48 b8 00 00 00 00 00 	movabs $0x0,%rax
 804ce60:	00 00 00 
 804ce63:	49 89 c3             	mov    %rax,%r11
 804ce66:	48 b8 00 00 00 00 00 	movabs $0x0,%rax
 804ce6d:	00 00 00 
 804ce70:	49 89 c2             	mov    %rax,%r10
 804ce73:	b8 00 00 00 00       	mov    $0x0,%eax
 804ce78:	48 89 c6             	mov    %rax,%rsi
 804ce7b:	48 8b 45 f0          	mov    -0x10(%rbp),%rax
 804ce7f:	48 89 c7             	mov    %rax,%rdi
 804ce82:	4c 89 d2             	mov    %r10,%rdx
 804ce85:	4c 89 d9             	mov    %r11,%rcx
 804ce88:	b8 00 00 00 00       	mov    $0x0,%eax
 804ce8d:	e8 20 ff ff ff       	callq  804cdb2 <put_extern_sym>
 804ce92:	48 8b 45 f0          	mov    -0x10(%rbp),%rax
 804ce96:	48 b9 18 00 00 00 00 	movabs $0x18,%rcx
 804ce9d:	00 00 00 
 804cea0:	48 01 c8             	add    %rcx,%rax
 804cea3:	48 8b 08             	mov    (%rax),%rcx
 804cea6:	89 4d dc             	mov    %ecx,-0x24(%rbp)
 804cea9:	8b 45 dc             	mov    -0x24(%rbp),%eax
 804ceac:	49 89 c0             	mov    %rax,%r8
 804ceaf:	8b 45 e0             	mov    -0x20(%rbp),%eax
 804ceb2:	49 89 c3             	mov    %rax,%r11
 804ceb5:	48 8b 45 e8          	mov    -0x18(%rbp),%rax
 804ceb9:	49 89 c2             	mov    %rax,%r10
 804cebc:	48 8b 45 f8          	mov    -0x8(%rbp),%rax
 804cec0:	48 89 c6             	mov    %rax,%rsi
 804cec3:	48 8b 05 ce 0f 04 00 	mov    0x40fce(%rip),%rax        # 808de98 <_GLOBAL_OFFSET_TABLE_+0x218>
 804ceca:	48 8b 00             	mov    (%rax),%rax
 804cecd:	48 89 c7             	mov    %rax,%rdi
 804ced0:	4c 89 d2             	mov    %r10,%rdx
 804ced3:	4c 89 d9             	mov    %r11,%rcx
 804ced6:	b8 00 00 00 00       	mov    $0x0,%eax
 804cedb:	e8 60 17 02 00       	callq  806e640 <put_elf_reloc>
 804cee0:	c9                   	leaveq 
 804cee1:	c3                   	retq   

000000000804cee2 <strcat_vprintf>:
 804cee2:	55                   	push   %rbp
 804cee3:	48 89 e5             	mov    %rsp,%rbp
 804cee6:	48 81 ec 30 00 00 00 	sub    $0x30,%rsp
 804ceed:	48 89 7d f8          	mov    %rdi,-0x8(%rbp)
 804cef1:	48 89 75 f0          	mov    %rsi,-0x10(%rbp)
 804cef5:	48 89 55 e8          	mov    %rdx,-0x18(%rbp)
 804cef9:	48 89 4d e0          	mov    %rcx,-0x20(%rbp)
 804cefd:	48 8b 45 f8          	mov    -0x8(%rbp),%rax
 804cf01:	48 89 c7             	mov    %rax,%rdi
 804cf04:	b8 00 00 00 00       	mov    $0x0,%eax
 804cf09:	e8 d2 a3 03 00       	callq  80872e0 <strlen>
 804cf0e:	89 45 dc             	mov    %eax,-0x24(%rbp)
 804cf11:	8b 45 dc             	mov    -0x24(%rbp),%eax
 804cf14:	48 63 c0             	movslq %eax,%rax
 804cf17:	48 8b 4d f8          	mov    -0x8(%rbp),%rcx
 804cf1b:	48 89 c2             	mov    %rax,%rdx
 804cf1e:	48 01 d1             	add    %rdx,%rcx
 804cf21:	8b 45 f0             	mov    -0x10(%rbp),%eax
 804cf24:	8b 55 dc             	mov    -0x24(%rbp),%edx
 804cf27:	48 29 d0             	sub    %rdx,%rax
 804cf2a:	48 8b 55 e0          	mov    -0x20(%rbp),%rdx
 804cf2e:	49 89 d3             	mov    %rdx,%r11
 804cf31:	48 8b 55 e8          	mov    -0x18(%rbp),%rdx
 804cf35:	49 89 d2             	mov    %rdx,%r10
 804cf38:	48 89 c6             	mov    %rax,%rsi
 804cf3b:	48 89 cf             	mov    %rcx,%rdi
 804cf3e:	4c 89 d2             	mov    %r10,%rdx
 804cf41:	4c 89 d9             	mov    %r11,%rcx
 804cf44:	b8 00 00 00 00       	mov    $0x0,%eax
 804cf49:	e8 12 ac 03 00       	callq  8087b60 <__preinit_array_end+0xc0>
 804cf4e:	c9                   	leaveq 
 804cf4f:	c3                   	retq   

000000000804cf50 <strcat_printf>:
 804cf50:	55                   	push   %rbp
 804cf51:	48 89 e5             	mov    %rsp,%rbp
 804cf54:	48 81 ec f0 00 00 00 	sub    $0xf0,%rsp
 804cf5b:	c7 45 f0 18 00 00 00 	movl   $0x18,-0x10(%rbp)
 804cf62:	c7 45 f4 30 00 00 00 	movl   $0x30,-0xc(%rbp)
 804cf69:	c7 45 f8 10 00 00 00 	movl   $0x10,-0x8(%rbp)
 804cf70:	66 0f d6 7d e0       	movq   %xmm7,-0x20(%rbp)
 804cf75:	48 c7 85 e8 ff ff ff 	movq   $0x0,-0x18(%rbp)
 804cf7c:	00 00 00 00 
 804cf80:	66 0f d6 75 d0       	movq   %xmm6,-0x30(%rbp)
 804cf85:	48 c7 85 d8 ff ff ff 	movq   $0x0,-0x28(%rbp)
 804cf8c:	00 00 00 00 
 804cf90:	66 0f d6 6d c0       	movq   %xmm5,-0x40(%rbp)
 804cf95:	48 c7 85 c8 ff ff ff 	movq   $0x0,-0x38(%rbp)
 804cf9c:	00 00 00 00 
 804cfa0:	66 0f d6 65 b0       	movq   %xmm4,-0x50(%rbp)
 804cfa5:	48 c7 85 b8 ff ff ff 	movq   $0x0,-0x48(%rbp)
 804cfac:	00 00 00 00 
 804cfb0:	66 0f d6 5d a0       	movq   %xmm3,-0x60(%rbp)
 804cfb5:	48 c7 85 a8 ff ff ff 	movq   $0x0,-0x58(%rbp)
 804cfbc:	00 00 00 00 
 804cfc0:	66 0f d6 55 90       	movq   %xmm2,-0x70(%rbp)
 804cfc5:	48 c7 85 98 ff ff ff 	movq   $0x0,-0x68(%rbp)
 804cfcc:	00 00 00 00 
 804cfd0:	66 0f d6 4d 80       	movq   %xmm1,-0x80(%rbp)
 804cfd5:	48 c7 85 88 ff ff ff 	movq   $0x0,-0x78(%rbp)
 804cfdc:	00 00 00 00 
 804cfe0:	66 0f d6 85 70 ff ff 	movq   %xmm0,-0x90(%rbp)
 804cfe7:	ff 
 804cfe8:	48 c7 85 78 ff ff ff 	movq   $0x0,-0x88(%rbp)
 804cfef:	00 00 00 00 
 804cff3:	4c 89 8d 68 ff ff ff 	mov    %r9,-0x98(%rbp)
 804cffa:	4c 89 85 60 ff ff ff 	mov    %r8,-0xa0(%rbp)
 804d001:	48 89 8d 58 ff ff ff 	mov    %rcx,-0xa8(%rbp)
 804d008:	48 89 95 50 ff ff ff 	mov    %rdx,-0xb0(%rbp)
 804d00f:	48 89 b5 48 ff ff ff 	mov    %rsi,-0xb8(%rbp)
 804d016:	48 89 bd 40 ff ff ff 	mov    %rdi,-0xc0(%rbp)
 804d01d:	48 89 bd 38 ff ff ff 	mov    %rdi,-0xc8(%rbp)
 804d024:	48 89 b5 30 ff ff ff 	mov    %rsi,-0xd0(%rbp)
 804d02b:	48 89 95 28 ff ff ff 	mov    %rdx,-0xd8(%rbp)
 804d032:	b8 18 00 00 00       	mov    $0x18,%eax
 804d037:	48 89 c7             	mov    %rax,%rdi
 804d03a:	b8 00 00 00 00       	mov    $0x0,%eax
 804d03f:	e8 ec aa 03 00       	callq  8087b30 <__preinit_array_end+0x90>
 804d044:	48 89 85 20 ff ff ff 	mov    %rax,-0xe0(%rbp)
 804d04b:	48 8b 85 20 ff ff ff 	mov    -0xe0(%rbp),%rax
 804d052:	b9 18 00 00 00       	mov    $0x18,%ecx
 804d057:	49 89 ca             	mov    %rcx,%r10
 804d05a:	48 8d 4d f0          	lea    -0x10(%rbp),%rcx
 804d05e:	48 89 ce             	mov    %rcx,%rsi
 804d061:	48 89 c7             	mov    %rax,%rdi
 804d064:	48 89 85 18 ff ff ff 	mov    %rax,-0xe8(%rbp)
 804d06b:	4c 89 d2             	mov    %r10,%rdx
 804d06e:	b8 00 00 00 00       	mov    $0x0,%eax
 804d073:	e8 f8 9b 03 00       	callq  8086c70 <memcpy>
 804d078:	48 8b 85 20 ff ff ff 	mov    -0xe0(%rbp),%rax
 804d07f:	48 b9 08 00 00 00 00 	movabs $0x8,%rcx
 804d086:	00 00 00 
 804d089:	48 01 c8             	add    %rcx,%rax
 804d08c:	48 8b 8d 20 ff ff ff 	mov    -0xe0(%rbp),%rcx
 804d093:	48 ba 08 00 00 00 00 	movabs $0x8,%rdx
 804d09a:	00 00 00 
 804d09d:	48 01 d1             	add    %rdx,%rcx
 804d0a0:	8b 11                	mov    (%rcx),%edx
 804d0a2:	48 8d 4d 00          	lea    0x0(%rbp),%rcx
 804d0a6:	48 89 85 10 ff ff ff 	mov    %rax,-0xf0(%rbp)
 804d0ad:	48 89 d0             	mov    %rdx,%rax
 804d0b0:	48 01 c1             	add    %rax,%rcx
 804d0b3:	48 8b 85 10 ff ff ff 	mov    -0xf0(%rbp),%rax
 804d0ba:	48 89 08             	mov    %rcx,(%rax)
 804d0bd:	48 8b 85 20 ff ff ff 	mov    -0xe0(%rbp),%rax
 804d0c4:	48 b9 10 00 00 00 00 	movabs $0x10,%rcx
 804d0cb:	00 00 00 
 804d0ce:	48 01 c8             	add    %rcx,%rax
 804d0d1:	48 8d 8d 40 ff ff ff 	lea    -0xc0(%rbp),%rcx
 804d0d8:	48 89 08             	mov    %rcx,(%rax)
 804d0db:	48 8b 85 20 ff ff ff 	mov    -0xe0(%rbp),%rax
 804d0e2:	49 89 c3             	mov    %rax,%r11
 804d0e5:	48 8b 85 28 ff ff ff 	mov    -0xd8(%rbp),%rax
 804d0ec:	49 89 c2             	mov    %rax,%r10
 804d0ef:	8b 85 30 ff ff ff    	mov    -0xd0(%rbp),%eax
 804d0f5:	48 89 c6             	mov    %rax,%rsi
 804d0f8:	48 8b 85 38 ff ff ff 	mov    -0xc8(%rbp),%rax
 804d0ff:	48 89 c7             	mov    %rax,%rdi
 804d102:	4c 89 d2             	mov    %r10,%rdx
 804d105:	4c 89 d9             	mov    %r11,%rcx
 804d108:	b8 00 00 00 00       	mov    $0x0,%eax
 804d10d:	e8 d0 fd ff ff       	callq  804cee2 <strcat_vprintf>
 804d112:	48 8b 85 20 ff ff ff 	mov    -0xe0(%rbp),%rax
 804d119:	48 89 c7             	mov    %rax,%rdi
 804d11c:	b8 00 00 00 00       	mov    $0x0,%eax
 804d121:	e8 fa a9 03 00       	callq  8087b20 <__preinit_array_end+0x80>
 804d126:	c9                   	leaveq 
 804d127:	c3                   	retq   

000000000804d128 <error1>:
 804d128:	55                   	push   %rbp
 804d129:	48 89 e5             	mov    %rsp,%rbp
 804d12c:	48 81 ec 30 08 00 00 	sub    $0x830,%rsp
 804d133:	48 89 7d f8          	mov    %rdi,-0x8(%rbp)
 804d137:	48 89 75 f0          	mov    %rsi,-0x10(%rbp)
 804d13b:	48 89 55 e8          	mov    %rdx,-0x18(%rbp)
 804d13f:	48 89 4d e0          	mov    %rcx,-0x20(%rbp)
 804d143:	b8 00 00 00 00       	mov    $0x0,%eax
 804d148:	88 85 e0 f7 ff ff    	mov    %al,-0x820(%rbp)
 804d14e:	48 8b 05 4b 0d 04 00 	mov    0x40d4b(%rip),%rax        # 808dea0 <_GLOBAL_OFFSET_TABLE_+0x220>
 804d155:	48 8b 00             	mov    (%rax),%rax
 804d158:	85 c0                	test   %eax,%eax
 804d15a:	0f 84 a2 01 00 00    	je     804d302 <error1+0x1da>
 804d160:	48 8b 45 f8          	mov    -0x8(%rbp),%rax
 804d164:	48 b9 48 02 00 00 00 	movabs $0x248,%rcx
 804d16b:	00 00 00 
 804d16e:	48 01 c8             	add    %rcx,%rax
 804d171:	48 89 85 d8 f7 ff ff 	mov    %rax,-0x828(%rbp)
 804d178:	48 8b 45 f8          	mov    -0x8(%rbp),%rax
 804d17c:	48 b9 08 00 00 00 00 	movabs $0x8,%rcx
 804d183:	00 00 00 
 804d186:	48 01 c8             	add    %rcx,%rax
 804d189:	48 8b 8d d8 f7 ff ff 	mov    -0x828(%rbp),%rcx
 804d190:	48 8b 10             	mov    (%rax),%rdx
 804d193:	48 89 c8             	mov    %rcx,%rax
 804d196:	48 89 d1             	mov    %rdx,%rcx
 804d199:	48 39 c8             	cmp    %rcx,%rax
 804d19c:	0f 83 8c 00 00 00    	jae    804d22e <error1+0x106>
 804d1a2:	e9 20 00 00 00       	jmpq   804d1c7 <error1+0x9f>
 804d1a7:	48 8b 85 d8 f7 ff ff 	mov    -0x828(%rbp),%rax
 804d1ae:	48 89 c1             	mov    %rax,%rcx
 804d1b1:	48 ba 08 00 00 00 00 	movabs $0x8,%rdx
 804d1b8:	00 00 00 
 804d1bb:	48 01 d0             	add    %rdx,%rax
 804d1be:	48 89 85 d8 f7 ff ff 	mov    %rax,-0x828(%rbp)
 804d1c5:	eb b1                	jmp    804d178 <error1+0x50>
 804d1c7:	48 8b 85 d8 f7 ff ff 	mov    -0x828(%rbp),%rax
 804d1ce:	48 8b 08             	mov    (%rax),%rcx
 804d1d1:	48 b8 39 02 00 00 00 	movabs $0x239,%rax
 804d1d8:	00 00 00 
 804d1db:	48 01 c1             	add    %rax,%rcx
 804d1de:	48 8b 85 d8 f7 ff ff 	mov    -0x828(%rbp),%rax
 804d1e5:	48 8b 10             	mov    (%rax),%rdx
 804d1e8:	48 b8 20 00 00 00 00 	movabs $0x20,%rax
 804d1ef:	00 00 00 
 804d1f2:	48 01 c2             	add    %rax,%rdx
 804d1f5:	8b 02                	mov    (%rdx),%eax
 804d1f7:	49 89 c0             	mov    %rax,%r8
 804d1fa:	49 89 cb             	mov    %rcx,%r11
 804d1fd:	48 8d 05 c0 c6 03 00 	lea    0x3c6c0(%rip),%rax        # 80898c4 <L.109>
 804d204:	49 89 c2             	mov    %rax,%r10
 804d207:	b8 00 08 00 00       	mov    $0x800,%eax
 804d20c:	48 89 c6             	mov    %rax,%rsi
 804d20f:	48 8d 85 e0 f7 ff ff 	lea    -0x820(%rbp),%rax
 804d216:	48 89 c7             	mov    %rax,%rdi
 804d219:	4c 89 d2             	mov    %r10,%rdx
 804d21c:	4c 89 d9             	mov    %r11,%rcx
 804d21f:	b8 00 00 00 00       	mov    $0x0,%eax
 804d224:	e8 27 fd ff ff       	callq  804cf50 <strcat_printf>
 804d229:	e9 79 ff ff ff       	jmpq   804d1a7 <error1+0x7f>
 804d22e:	48 8b 05 6b 0c 04 00 	mov    0x40c6b(%rip),%rax        # 808dea0 <_GLOBAL_OFFSET_TABLE_+0x220>
 804d235:	48 8b 00             	mov    (%rax),%rax
 804d238:	48 b9 20 00 00 00 00 	movabs $0x20,%rcx
 804d23f:	00 00 00 
 804d242:	48 01 c8             	add    %rcx,%rax
 804d245:	8b 08                	mov    (%rax),%ecx
 804d247:	83 f9 00             	cmp    $0x0,%ecx
 804d24a:	0f 8e 67 00 00 00    	jle    804d2b7 <error1+0x18f>
 804d250:	48 8b 05 49 0c 04 00 	mov    0x40c49(%rip),%rax        # 808dea0 <_GLOBAL_OFFSET_TABLE_+0x220>
 804d257:	48 8b 00             	mov    (%rax),%rax
 804d25a:	48 b9 39 02 00 00 00 	movabs $0x239,%rcx
 804d261:	00 00 00 
 804d264:	48 01 c8             	add    %rcx,%rax
 804d267:	48 8b 0d 32 0c 04 00 	mov    0x40c32(%rip),%rcx        # 808dea0 <_GLOBAL_OFFSET_TABLE_+0x220>
 804d26e:	48 8b 09             	mov    (%rcx),%rcx
 804d271:	48 ba 20 00 00 00 00 	movabs $0x20,%rdx
 804d278:	00 00 00 
 804d27b:	48 01 d1             	add    %rdx,%rcx
 804d27e:	8b 11                	mov    (%rcx),%edx
 804d280:	49 89 d0             	mov    %rdx,%r8
 804d283:	49 89 c3             	mov    %rax,%r11
 804d286:	48 8d 05 55 c6 03 00 	lea    0x3c655(%rip),%rax        # 80898e2 <L.110>
 804d28d:	49 89 c2             	mov    %rax,%r10
 804d290:	b8 00 08 00 00       	mov    $0x800,%eax
 804d295:	48 89 c6             	mov    %rax,%rsi
 804d298:	48 8d 85 e0 f7 ff ff 	lea    -0x820(%rbp),%rax
 804d29f:	48 89 c7             	mov    %rax,%rdi
 804d2a2:	4c 89 d2             	mov    %r10,%rdx
 804d2a5:	4c 89 d9             	mov    %r11,%rcx
 804d2a8:	b8 00 00 00 00       	mov    $0x0,%eax
 804d2ad:	e8 9e fc ff ff       	callq  804cf50 <strcat_printf>
 804d2b2:	e9 46 00 00 00       	jmpq   804d2fd <error1+0x1d5>
 804d2b7:	48 8b 05 e2 0b 04 00 	mov    0x40be2(%rip),%rax        # 808dea0 <_GLOBAL_OFFSET_TABLE_+0x220>
 804d2be:	48 8b 00             	mov    (%rax),%rax
 804d2c1:	48 b9 39 02 00 00 00 	movabs $0x239,%rcx
 804d2c8:	00 00 00 
 804d2cb:	48 01 c8             	add    %rcx,%rax
 804d2ce:	49 89 c3             	mov    %rax,%r11
 804d2d1:	48 8d 05 12 c6 03 00 	lea    0x3c612(%rip),%rax        # 80898ea <L.111>
 804d2d8:	49 89 c2             	mov    %rax,%r10
 804d2db:	b8 00 08 00 00       	mov    $0x800,%eax
 804d2e0:	48 89 c6             	mov    %rax,%rsi
 804d2e3:	48 8d 85 e0 f7 ff ff 	lea    -0x820(%rbp),%rax
 804d2ea:	48 89 c7             	mov    %rax,%rdi
 804d2ed:	4c 89 d2             	mov    %r10,%rdx
 804d2f0:	4c 89 d9             	mov    %r11,%rcx
 804d2f3:	b8 00 00 00 00       	mov    $0x0,%eax
 804d2f8:	e8 53 fc ff ff       	callq  804cf50 <strcat_printf>
 804d2fd:	e9 29 00 00 00       	jmpq   804d32b <error1+0x203>
 804d302:	48 8d 05 e6 c5 03 00 	lea    0x3c5e6(%rip),%rax        # 80898ef <L.112>
 804d309:	49 89 c2             	mov    %rax,%r10
 804d30c:	b8 00 08 00 00       	mov    $0x800,%eax
 804d311:	48 89 c6             	mov    %rax,%rsi
 804d314:	48 8d 85 e0 f7 ff ff 	lea    -0x820(%rbp),%rax
 804d31b:	48 89 c7             	mov    %rax,%rdi
 804d31e:	4c 89 d2             	mov    %r10,%rdx
 804d321:	b8 00 00 00 00       	mov    $0x0,%eax
 804d326:	e8 25 fc ff ff       	callq  804cf50 <strcat_printf>
 804d32b:	8b 45 f0             	mov    -0x10(%rbp),%eax
 804d32e:	85 c0                	test   %eax,%eax
 804d330:	0f 84 2e 00 00 00    	je     804d364 <error1+0x23c>
 804d336:	48 8d 05 b8 c5 03 00 	lea    0x3c5b8(%rip),%rax        # 80898f5 <L.113>
 804d33d:	49 89 c2             	mov    %rax,%r10
 804d340:	b8 00 08 00 00       	mov    $0x800,%eax
 804d345:	48 89 c6             	mov    %rax,%rsi
 804d348:	48 8d 85 e0 f7 ff ff 	lea    -0x820(%rbp),%rax
 804d34f:	48 89 c7             	mov    %rax,%rdi
 804d352:	4c 89 d2             	mov    %r10,%rdx
 804d355:	b8 00 00 00 00       	mov    $0x0,%eax
 804d35a:	e8 f1 fb ff ff       	callq  804cf50 <strcat_printf>
 804d35f:	e9 29 00 00 00       	jmpq   804d38d <error1+0x265>
 804d364:	48 8d 05 94 c5 03 00 	lea    0x3c594(%rip),%rax        # 80898ff <L.114>
 804d36b:	49 89 c2             	mov    %rax,%r10
 804d36e:	b8 00 08 00 00       	mov    $0x800,%eax
 804d373:	48 89 c6             	mov    %rax,%rsi
 804d376:	48 8d 85 e0 f7 ff ff 	lea    -0x820(%rbp),%rax
 804d37d:	48 89 c7             	mov    %rax,%rdi
 804d380:	4c 89 d2             	mov    %r10,%rdx
 804d383:	b8 00 00 00 00       	mov    $0x0,%eax
 804d388:	e8 c3 fb ff ff       	callq  804cf50 <strcat_printf>
 804d38d:	48 8b 45 e0          	mov    -0x20(%rbp),%rax
 804d391:	49 89 c3             	mov    %rax,%r11
 804d394:	48 8b 45 e8          	mov    -0x18(%rbp),%rax
 804d398:	49 89 c2             	mov    %rax,%r10
 804d39b:	b8 00 08 00 00       	mov    $0x800,%eax
 804d3a0:	48 89 c6             	mov    %rax,%rsi
 804d3a3:	48 8d 85 e0 f7 ff ff 	lea    -0x820(%rbp),%rax
 804d3aa:	48 89 c7             	mov    %rax,%rdi
 804d3ad:	4c 89 d2             	mov    %r10,%rdx
 804d3b0:	4c 89 d9             	mov    %r11,%rcx
 804d3b3:	b8 00 00 00 00       	mov    $0x0,%eax
 804d3b8:	e8 25 fb ff ff       	callq  804cee2 <strcat_vprintf>
 804d3bd:	48 8b 45 f8          	mov    -0x8(%rbp),%rax
 804d3c1:	48 b9 60 01 00 00 00 	movabs $0x160,%rcx
 804d3c8:	00 00 00 
 804d3cb:	48 01 c8             	add    %rcx,%rax
 804d3ce:	48 8b 08             	mov    (%rax),%rcx
 804d3d1:	85 c9                	test   %ecx,%ecx
 804d3d3:	0f 84 05 00 00 00    	je     804d3de <error1+0x2b6>
 804d3d9:	e9 33 00 00 00       	jmpq   804d411 <error1+0x2e9>
 804d3de:	48 8d 85 e0 f7 ff ff 	lea    -0x820(%rbp),%rax
 804d3e5:	49 89 c2             	mov    %rax,%r10
 804d3e8:	48 8d 05 18 c5 03 00 	lea    0x3c518(%rip),%rax        # 8089907 <L.115>
 804d3ef:	48 89 c6             	mov    %rax,%rsi
 804d3f2:	48 8b 05 af 0a 04 00 	mov    0x40aaf(%rip),%rax        # 808dea8 <_GLOBAL_OFFSET_TABLE_+0x228>
 804d3f9:	48 8b 00             	mov    (%rax),%rax
 804d3fc:	48 89 c7             	mov    %rax,%rdi
 804d3ff:	4c 89 d2             	mov    %r10,%rdx
 804d402:	b8 00 00 00 00       	mov    $0x0,%eax
 804d407:	e8 64 a7 03 00       	callq  8087b70 <__preinit_array_end+0xd0>
 804d40c:	e9 4b 00 00 00       	jmpq   804d45c <error1+0x334>
 804d411:	48 8b 45 f8          	mov    -0x8(%rbp),%rax
 804d415:	48 b9 60 01 00 00 00 	movabs $0x160,%rcx
 804d41c:	00 00 00 
 804d41f:	48 01 c8             	add    %rcx,%rax
 804d422:	48 8b 4d f8          	mov    -0x8(%rbp),%rcx
 804d426:	48 ba 58 01 00 00 00 	movabs $0x158,%rdx
 804d42d:	00 00 00 
 804d430:	48 01 d1             	add    %rdx,%rcx
 804d433:	48 8d 95 e0 f7 ff ff 	lea    -0x820(%rbp),%rdx
 804d43a:	48 89 d6             	mov    %rdx,%rsi
 804d43d:	48 8b 11             	mov    (%rcx),%rdx
 804d440:	48 89 d7             	mov    %rdx,%rdi
 804d443:	48 89 85 d0 f7 ff ff 	mov    %rax,-0x830(%rbp)
 804d44a:	b8 00 00 00 00       	mov    $0x0,%eax
 804d44f:	4c 8b 9d d0 f7 ff ff 	mov    -0x830(%rbp),%r11
 804d456:	4d 8b 1b             	mov    (%r11),%r11
 804d459:	41 ff d3             	callq  *%r11
 804d45c:	8b 45 f0             	mov    -0x10(%rbp),%eax
 804d45f:	85 c0                	test   %eax,%eax
 804d461:	0f 84 20 00 00 00    	je     804d487 <error1+0x35f>
 804d467:	48 8b 45 f8          	mov    -0x8(%rbp),%rax
 804d46b:	48 b9 3c 01 00 00 00 	movabs $0x13c,%rcx
 804d472:	00 00 00 
 804d475:	48 01 c8             	add    %rcx,%rax
 804d478:	8b 08                	mov    (%rax),%ecx
 804d47a:	85 c9                	test   %ecx,%ecx
 804d47c:	0f 85 05 00 00 00    	jne    804d487 <error1+0x35f>
 804d482:	e9 1b 00 00 00       	jmpq   804d4a2 <error1+0x37a>
 804d487:	48 8b 45 f8          	mov    -0x8(%rbp),%rax
 804d48b:	48 b9 38 02 00 00 00 	movabs $0x238,%rcx
 804d492:	00 00 00 
 804d495:	48 01 c8             	add    %rcx,%rax
 804d498:	8b 08                	mov    (%rax),%ecx
 804d49a:	48 89 ca             	mov    %rcx,%rdx
 804d49d:	83 c1 01             	add    $0x1,%ecx
 804d4a0:	89 08                	mov    %ecx,(%rax)
 804d4a2:	c9                   	leaveq 
 804d4a3:	c3                   	retq   

000000000804d4a4 <tcc_set_error_func>:
 804d4a4:	55                   	push   %rbp
 804d4a5:	48 89 e5             	mov    %rsp,%rbp
 804d4a8:	48 81 ec 20 00 00 00 	sub    $0x20,%rsp
 804d4af:	48 89 7d f8          	mov    %rdi,-0x8(%rbp)
 804d4b3:	48 89 75 f0          	mov    %rsi,-0x10(%rbp)
 804d4b7:	48 89 55 e8          	mov    %rdx,-0x18(%rbp)
 804d4bb:	48 8b 45 f8          	mov    -0x8(%rbp),%rax
 804d4bf:	48 b9 58 01 00 00 00 	movabs $0x158,%rcx
 804d4c6:	00 00 00 
 804d4c9:	48 01 c8             	add    %rcx,%rax
 804d4cc:	48 8b 4d f0          	mov    -0x10(%rbp),%rcx
 804d4d0:	48 89 08             	mov    %rcx,(%rax)
 804d4d3:	48 8b 45 f8          	mov    -0x8(%rbp),%rax
 804d4d7:	48 b9 60 01 00 00 00 	movabs $0x160,%rcx
 804d4de:	00 00 00 
 804d4e1:	48 01 c8             	add    %rcx,%rax
 804d4e4:	48 8b 4d e8          	mov    -0x18(%rbp),%rcx
 804d4e8:	48 89 08             	mov    %rcx,(%rax)
 804d4eb:	c9                   	leaveq 
 804d4ec:	c3                   	retq   

000000000804d4ed <tcc_error_noabort>:
 804d4ed:	55                   	push   %rbp
 804d4ee:	48 89 e5             	mov    %rsp,%rbp
 804d4f1:	48 81 ec f0 00 00 00 	sub    $0xf0,%rsp
 804d4f8:	c7 45 f0 08 00 00 00 	movl   $0x8,-0x10(%rbp)
 804d4ff:	c7 45 f4 30 00 00 00 	movl   $0x30,-0xc(%rbp)
 804d506:	c7 45 f8 10 00 00 00 	movl   $0x10,-0x8(%rbp)
 804d50d:	66 0f d6 7d e0       	movq   %xmm7,-0x20(%rbp)
 804d512:	48 c7 85 e8 ff ff ff 	movq   $0x0,-0x18(%rbp)
 804d519:	00 00 00 00 
 804d51d:	66 0f d6 75 d0       	movq   %xmm6,-0x30(%rbp)
 804d522:	48 c7 85 d8 ff ff ff 	movq   $0x0,-0x28(%rbp)
 804d529:	00 00 00 00 
 804d52d:	66 0f d6 6d c0       	movq   %xmm5,-0x40(%rbp)
 804d532:	48 c7 85 c8 ff ff ff 	movq   $0x0,-0x38(%rbp)
 804d539:	00 00 00 00 
 804d53d:	66 0f d6 65 b0       	movq   %xmm4,-0x50(%rbp)
 804d542:	48 c7 85 b8 ff ff ff 	movq   $0x0,-0x48(%rbp)
 804d549:	00 00 00 00 
 804d54d:	66 0f d6 5d a0       	movq   %xmm3,-0x60(%rbp)
 804d552:	48 c7 85 a8 ff ff ff 	movq   $0x0,-0x58(%rbp)
 804d559:	00 00 00 00 
 804d55d:	66 0f d6 55 90       	movq   %xmm2,-0x70(%rbp)
 804d562:	48 c7 85 98 ff ff ff 	movq   $0x0,-0x68(%rbp)
 804d569:	00 00 00 00 
 804d56d:	66 0f d6 4d 80       	movq   %xmm1,-0x80(%rbp)
 804d572:	48 c7 85 88 ff ff ff 	movq   $0x0,-0x78(%rbp)
 804d579:	00 00 00 00 
 804d57d:	66 0f d6 85 70 ff ff 	movq   %xmm0,-0x90(%rbp)
 804d584:	ff 
 804d585:	48 c7 85 78 ff ff ff 	movq   $0x0,-0x88(%rbp)
 804d58c:	00 00 00 00 
 804d590:	4c 89 8d 68 ff ff ff 	mov    %r9,-0x98(%rbp)
 804d597:	4c 89 85 60 ff ff ff 	mov    %r8,-0xa0(%rbp)
 804d59e:	48 89 8d 58 ff ff ff 	mov    %rcx,-0xa8(%rbp)
 804d5a5:	48 89 95 50 ff ff ff 	mov    %rdx,-0xb0(%rbp)
 804d5ac:	48 89 b5 48 ff ff ff 	mov    %rsi,-0xb8(%rbp)
 804d5b3:	48 89 bd 40 ff ff ff 	mov    %rdi,-0xc0(%rbp)
 804d5ba:	48 89 bd 38 ff ff ff 	mov    %rdi,-0xc8(%rbp)
 804d5c1:	48 8b 05 c8 08 04 00 	mov    0x408c8(%rip),%rax        # 808de90 <_GLOBAL_OFFSET_TABLE_+0x210>
 804d5c8:	48 8b 00             	mov    (%rax),%rax
 804d5cb:	48 89 85 30 ff ff ff 	mov    %rax,-0xd0(%rbp)
 804d5d2:	b8 18 00 00 00       	mov    $0x18,%eax
 804d5d7:	48 89 c7             	mov    %rax,%rdi
 804d5da:	b8 00 00 00 00       	mov    $0x0,%eax
 804d5df:	e8 4c a5 03 00       	callq  8087b30 <__preinit_array_end+0x90>
 804d5e4:	48 89 85 28 ff ff ff 	mov    %rax,-0xd8(%rbp)
 804d5eb:	48 8b 85 28 ff ff ff 	mov    -0xd8(%rbp),%rax
 804d5f2:	b9 18 00 00 00       	mov    $0x18,%ecx
 804d5f7:	49 89 ca             	mov    %rcx,%r10
 804d5fa:	48 8d 4d f0          	lea    -0x10(%rbp),%rcx
 804d5fe:	48 89 ce             	mov    %rcx,%rsi
 804d601:	48 89 c7             	mov    %rax,%rdi
 804d604:	48 89 85 20 ff ff ff 	mov    %rax,-0xe0(%rbp)
 804d60b:	4c 89 d2             	mov    %r10,%rdx
 804d60e:	b8 00 00 00 00       	mov    $0x0,%eax
 804d613:	e8 58 96 03 00       	callq  8086c70 <memcpy>
 804d618:	48 8b 85 28 ff ff ff 	mov    -0xd8(%rbp),%rax
 804d61f:	48 b9 08 00 00 00 00 	movabs $0x8,%rcx
 804d626:	00 00 00 
 804d629:	48 01 c8             	add    %rcx,%rax
 804d62c:	48 8b 8d 28 ff ff ff 	mov    -0xd8(%rbp),%rcx
 804d633:	48 ba 08 00 00 00 00 	movabs $0x8,%rdx
 804d63a:	00 00 00 
 804d63d:	48 01 d1             	add    %rdx,%rcx
 804d640:	8b 11                	mov    (%rcx),%edx
 804d642:	48 8d 4d 00          	lea    0x0(%rbp),%rcx
 804d646:	48 89 85 18 ff ff ff 	mov    %rax,-0xe8(%rbp)
 804d64d:	48 89 d0             	mov    %rdx,%rax
 804d650:	48 01 c1             	add    %rax,%rcx
 804d653:	48 8b 85 18 ff ff ff 	mov    -0xe8(%rbp),%rax
 804d65a:	48 89 08             	mov    %rcx,(%rax)
 804d65d:	48 8b 85 28 ff ff ff 	mov    -0xd8(%rbp),%rax
 804d664:	48 b9 10 00 00 00 00 	movabs $0x10,%rcx
 804d66b:	00 00 00 
 804d66e:	48 01 c8             	add    %rcx,%rax
 804d671:	48 8d 8d 40 ff ff ff 	lea    -0xc0(%rbp),%rcx
 804d678:	48 89 08             	mov    %rcx,(%rax)
 804d67b:	48 8b 85 28 ff ff ff 	mov    -0xd8(%rbp),%rax
 804d682:	49 89 c3             	mov    %rax,%r11
 804d685:	48 8b 85 38 ff ff ff 	mov    -0xc8(%rbp),%rax
 804d68c:	49 89 c2             	mov    %rax,%r10
 804d68f:	b8 00 00 00 00       	mov    $0x0,%eax
 804d694:	48 89 c6             	mov    %rax,%rsi
 804d697:	48 8b 85 30 ff ff ff 	mov    -0xd0(%rbp),%rax
 804d69e:	48 89 c7             	mov    %rax,%rdi
 804d6a1:	4c 89 d2             	mov    %r10,%rdx
 804d6a4:	4c 89 d9             	mov    %r11,%rcx
 804d6a7:	b8 00 00 00 00       	mov    $0x0,%eax
 804d6ac:	e8 77 fa ff ff       	callq  804d128 <error1>
 804d6b1:	48 8b 85 28 ff ff ff 	mov    -0xd8(%rbp),%rax
 804d6b8:	48 89 c7             	mov    %rax,%rdi
 804d6bb:	b8 00 00 00 00       	mov    $0x0,%eax
 804d6c0:	e8 5b a4 03 00       	callq  8087b20 <__preinit_array_end+0x80>
 804d6c5:	c9                   	leaveq 
 804d6c6:	c3                   	retq   

000000000804d6c7 <tcc_error>:
 804d6c7:	55                   	push   %rbp
 804d6c8:	48 89 e5             	mov    %rsp,%rbp
 804d6cb:	48 81 ec f0 00 00 00 	sub    $0xf0,%rsp
 804d6d2:	c7 45 f0 08 00 00 00 	movl   $0x8,-0x10(%rbp)
 804d6d9:	c7 45 f4 30 00 00 00 	movl   $0x30,-0xc(%rbp)
 804d6e0:	c7 45 f8 10 00 00 00 	movl   $0x10,-0x8(%rbp)
 804d6e7:	66 0f d6 7d e0       	movq   %xmm7,-0x20(%rbp)
 804d6ec:	48 c7 85 e8 ff ff ff 	movq   $0x0,-0x18(%rbp)
 804d6f3:	00 00 00 00 
 804d6f7:	66 0f d6 75 d0       	movq   %xmm6,-0x30(%rbp)
 804d6fc:	48 c7 85 d8 ff ff ff 	movq   $0x0,-0x28(%rbp)
 804d703:	00 00 00 00 
 804d707:	66 0f d6 6d c0       	movq   %xmm5,-0x40(%rbp)
 804d70c:	48 c7 85 c8 ff ff ff 	movq   $0x0,-0x38(%rbp)
 804d713:	00 00 00 00 
 804d717:	66 0f d6 65 b0       	movq   %xmm4,-0x50(%rbp)
 804d71c:	48 c7 85 b8 ff ff ff 	movq   $0x0,-0x48(%rbp)
 804d723:	00 00 00 00 
 804d727:	66 0f d6 5d a0       	movq   %xmm3,-0x60(%rbp)
 804d72c:	48 c7 85 a8 ff ff ff 	movq   $0x0,-0x58(%rbp)
 804d733:	00 00 00 00 
 804d737:	66 0f d6 55 90       	movq   %xmm2,-0x70(%rbp)
 804d73c:	48 c7 85 98 ff ff ff 	movq   $0x0,-0x68(%rbp)
 804d743:	00 00 00 00 
 804d747:	66 0f d6 4d 80       	movq   %xmm1,-0x80(%rbp)
 804d74c:	48 c7 85 88 ff ff ff 	movq   $0x0,-0x78(%rbp)
 804d753:	00 00 00 00 
 804d757:	66 0f d6 85 70 ff ff 	movq   %xmm0,-0x90(%rbp)
 804d75e:	ff 
 804d75f:	48 c7 85 78 ff ff ff 	movq   $0x0,-0x88(%rbp)
 804d766:	00 00 00 00 
 804d76a:	4c 89 8d 68 ff ff ff 	mov    %r9,-0x98(%rbp)
 804d771:	4c 89 85 60 ff ff ff 	mov    %r8,-0xa0(%rbp)
 804d778:	48 89 8d 58 ff ff ff 	mov    %rcx,-0xa8(%rbp)
 804d77f:	48 89 95 50 ff ff ff 	mov    %rdx,-0xb0(%rbp)
 804d786:	48 89 b5 48 ff ff ff 	mov    %rsi,-0xb8(%rbp)
 804d78d:	48 89 bd 40 ff ff ff 	mov    %rdi,-0xc0(%rbp)
 804d794:	48 89 bd 38 ff ff ff 	mov    %rdi,-0xc8(%rbp)
 804d79b:	48 8b 05 ee 06 04 00 	mov    0x406ee(%rip),%rax        # 808de90 <_GLOBAL_OFFSET_TABLE_+0x210>
 804d7a2:	48 8b 00             	mov    (%rax),%rax
 804d7a5:	48 89 85 30 ff ff ff 	mov    %rax,-0xd0(%rbp)
 804d7ac:	b8 18 00 00 00       	mov    $0x18,%eax
 804d7b1:	48 89 c7             	mov    %rax,%rdi
 804d7b4:	b8 00 00 00 00       	mov    $0x0,%eax
 804d7b9:	e8 72 a3 03 00       	callq  8087b30 <__preinit_array_end+0x90>
 804d7be:	48 89 85 28 ff ff ff 	mov    %rax,-0xd8(%rbp)
 804d7c5:	48 8b 85 28 ff ff ff 	mov    -0xd8(%rbp),%rax
 804d7cc:	b9 18 00 00 00       	mov    $0x18,%ecx
 804d7d1:	49 89 ca             	mov    %rcx,%r10
 804d7d4:	48 8d 4d f0          	lea    -0x10(%rbp),%rcx
 804d7d8:	48 89 ce             	mov    %rcx,%rsi
 804d7db:	48 89 c7             	mov    %rax,%rdi
 804d7de:	48 89 85 20 ff ff ff 	mov    %rax,-0xe0(%rbp)
 804d7e5:	4c 89 d2             	mov    %r10,%rdx
 804d7e8:	b8 00 00 00 00       	mov    $0x0,%eax
 804d7ed:	e8 7e 94 03 00       	callq  8086c70 <memcpy>
 804d7f2:	48 8b 85 28 ff ff ff 	mov    -0xd8(%rbp),%rax
 804d7f9:	48 b9 08 00 00 00 00 	movabs $0x8,%rcx
 804d800:	00 00 00 
 804d803:	48 01 c8             	add    %rcx,%rax
 804d806:	48 8b 8d 28 ff ff ff 	mov    -0xd8(%rbp),%rcx
 804d80d:	48 ba 08 00 00 00 00 	movabs $0x8,%rdx
 804d814:	00 00 00 
 804d817:	48 01 d1             	add    %rdx,%rcx
 804d81a:	8b 11                	mov    (%rcx),%edx
 804d81c:	48 8d 4d 00          	lea    0x0(%rbp),%rcx
 804d820:	48 89 85 18 ff ff ff 	mov    %rax,-0xe8(%rbp)
 804d827:	48 89 d0             	mov    %rdx,%rax
 804d82a:	48 01 c1             	add    %rax,%rcx
 804d82d:	48 8b 85 18 ff ff ff 	mov    -0xe8(%rbp),%rax
 804d834:	48 89 08             	mov    %rcx,(%rax)
 804d837:	48 8b 85 28 ff ff ff 	mov    -0xd8(%rbp),%rax
 804d83e:	48 b9 10 00 00 00 00 	movabs $0x10,%rcx
 804d845:	00 00 00 
 804d848:	48 01 c8             	add    %rcx,%rax
 804d84b:	48 8d 8d 40 ff ff ff 	lea    -0xc0(%rbp),%rcx
 804d852:	48 89 08             	mov    %rcx,(%rax)
 804d855:	48 8b 85 28 ff ff ff 	mov    -0xd8(%rbp),%rax
 804d85c:	49 89 c3             	mov    %rax,%r11
 804d85f:	48 8b 85 38 ff ff ff 	mov    -0xc8(%rbp),%rax
 804d866:	49 89 c2             	mov    %rax,%r10
 804d869:	b8 00 00 00 00       	mov    $0x0,%eax
 804d86e:	48 89 c6             	mov    %rax,%rsi
 804d871:	48 8b 85 30 ff ff ff 	mov    -0xd0(%rbp),%rax
 804d878:	48 89 c7             	mov    %rax,%rdi
 804d87b:	4c 89 d2             	mov    %r10,%rdx
 804d87e:	4c 89 d9             	mov    %r11,%rcx
 804d881:	b8 00 00 00 00       	mov    $0x0,%eax
 804d886:	e8 9d f8 ff ff       	callq  804d128 <error1>
 804d88b:	48 8b 85 28 ff ff ff 	mov    -0xd8(%rbp),%rax
 804d892:	48 89 c7             	mov    %rax,%rdi
 804d895:	b8 00 00 00 00       	mov    $0x0,%eax
 804d89a:	e8 81 a2 03 00       	callq  8087b20 <__preinit_array_end+0x80>
 804d89f:	48 8b 85 30 ff ff ff 	mov    -0xd0(%rbp),%rax
 804d8a6:	48 b9 68 01 00 00 00 	movabs $0x168,%rcx
 804d8ad:	00 00 00 
 804d8b0:	48 01 c8             	add    %rcx,%rax
 804d8b3:	8b 08                	mov    (%rax),%ecx
 804d8b5:	85 c9                	test   %ecx,%ecx
 804d8b7:	0f 84 2e 00 00 00    	je     804d8eb <tcc_error+0x224>
 804d8bd:	48 8b 85 30 ff ff ff 	mov    -0xd0(%rbp),%rax
 804d8c4:	48 b9 70 01 00 00 00 	movabs $0x170,%rcx
 804d8cb:	00 00 00 
 804d8ce:	48 01 c8             	add    %rcx,%rax
 804d8d1:	b9 01 00 00 00       	mov    $0x1,%ecx
 804d8d6:	48 89 ce             	mov    %rcx,%rsi
 804d8d9:	48 89 c7             	mov    %rax,%rdi
 804d8dc:	b8 00 00 00 00       	mov    $0x0,%eax
 804d8e1:	e8 9a a2 03 00       	callq  8087b80 <__preinit_array_end+0xe0>
 804d8e6:	e9 12 00 00 00       	jmpq   804d8fd <tcc_error+0x236>
 804d8eb:	b8 01 00 00 00       	mov    $0x1,%eax
 804d8f0:	48 89 c7             	mov    %rax,%rdi
 804d8f3:	b8 00 00 00 00       	mov    $0x0,%eax
 804d8f8:	e8 93 a2 03 00       	callq  8087b90 <__preinit_array_end+0xf0>
 804d8fd:	c9                   	leaveq 
 804d8fe:	c3                   	retq   

000000000804d8ff <tcc_warning>:
 804d8ff:	55                   	push   %rbp
 804d900:	48 89 e5             	mov    %rsp,%rbp
 804d903:	48 81 ec f0 00 00 00 	sub    $0xf0,%rsp
 804d90a:	c7 45 f0 08 00 00 00 	movl   $0x8,-0x10(%rbp)
 804d911:	c7 45 f4 30 00 00 00 	movl   $0x30,-0xc(%rbp)
 804d918:	c7 45 f8 10 00 00 00 	movl   $0x10,-0x8(%rbp)
 804d91f:	66 0f d6 7d e0       	movq   %xmm7,-0x20(%rbp)
 804d924:	48 c7 85 e8 ff ff ff 	movq   $0x0,-0x18(%rbp)
 804d92b:	00 00 00 00 
 804d92f:	66 0f d6 75 d0       	movq   %xmm6,-0x30(%rbp)
 804d934:	48 c7 85 d8 ff ff ff 	movq   $0x0,-0x28(%rbp)
 804d93b:	00 00 00 00 
 804d93f:	66 0f d6 6d c0       	movq   %xmm5,-0x40(%rbp)
 804d944:	48 c7 85 c8 ff ff ff 	movq   $0x0,-0x38(%rbp)
 804d94b:	00 00 00 00 
 804d94f:	66 0f d6 65 b0       	movq   %xmm4,-0x50(%rbp)
 804d954:	48 c7 85 b8 ff ff ff 	movq   $0x0,-0x48(%rbp)
 804d95b:	00 00 00 00 
 804d95f:	66 0f d6 5d a0       	movq   %xmm3,-0x60(%rbp)
 804d964:	48 c7 85 a8 ff ff ff 	movq   $0x0,-0x58(%rbp)
 804d96b:	00 00 00 00 
 804d96f:	66 0f d6 55 90       	movq   %xmm2,-0x70(%rbp)
 804d974:	48 c7 85 98 ff ff ff 	movq   $0x0,-0x68(%rbp)
 804d97b:	00 00 00 00 
 804d97f:	66 0f d6 4d 80       	movq   %xmm1,-0x80(%rbp)
 804d984:	48 c7 85 88 ff ff ff 	movq   $0x0,-0x78(%rbp)
 804d98b:	00 00 00 00 
 804d98f:	66 0f d6 85 70 ff ff 	movq   %xmm0,-0x90(%rbp)
 804d996:	ff 
 804d997:	48 c7 85 78 ff ff ff 	movq   $0x0,-0x88(%rbp)
 804d99e:	00 00 00 00 
 804d9a2:	4c 89 8d 68 ff ff ff 	mov    %r9,-0x98(%rbp)
 804d9a9:	4c 89 85 60 ff ff ff 	mov    %r8,-0xa0(%rbp)
 804d9b0:	48 89 8d 58 ff ff ff 	mov    %rcx,-0xa8(%rbp)
 804d9b7:	48 89 95 50 ff ff ff 	mov    %rdx,-0xb0(%rbp)
 804d9be:	48 89 b5 48 ff ff ff 	mov    %rsi,-0xb8(%rbp)
 804d9c5:	48 89 bd 40 ff ff ff 	mov    %rdi,-0xc0(%rbp)
 804d9cc:	48 89 bd 38 ff ff ff 	mov    %rdi,-0xc8(%rbp)
 804d9d3:	48 8b 05 b6 04 04 00 	mov    0x404b6(%rip),%rax        # 808de90 <_GLOBAL_OFFSET_TABLE_+0x210>
 804d9da:	48 8b 00             	mov    (%rax),%rax
 804d9dd:	48 89 85 30 ff ff ff 	mov    %rax,-0xd0(%rbp)
 804d9e4:	48 8b 85 30 ff ff ff 	mov    -0xd0(%rbp),%rax
 804d9eb:	48 b9 40 01 00 00 00 	movabs $0x140,%rcx
 804d9f2:	00 00 00 
 804d9f5:	48 01 c8             	add    %rcx,%rax
 804d9f8:	8b 08                	mov    (%rax),%ecx
 804d9fa:	85 c9                	test   %ecx,%ecx
 804d9fc:	0f 84 05 00 00 00    	je     804da07 <tcc_warning+0x108>
 804da02:	e9 f3 00 00 00       	jmpq   804dafa <tcc_warning+0x1fb>
 804da07:	b8 18 00 00 00       	mov    $0x18,%eax
 804da0c:	48 89 c7             	mov    %rax,%rdi
 804da0f:	b8 00 00 00 00       	mov    $0x0,%eax
 804da14:	e8 17 a1 03 00       	callq  8087b30 <__preinit_array_end+0x90>
 804da19:	48 89 85 28 ff ff ff 	mov    %rax,-0xd8(%rbp)
 804da20:	48 8b 85 28 ff ff ff 	mov    -0xd8(%rbp),%rax
 804da27:	b9 18 00 00 00       	mov    $0x18,%ecx
 804da2c:	49 89 ca             	mov    %rcx,%r10
 804da2f:	48 8d 4d f0          	lea    -0x10(%rbp),%rcx
 804da33:	48 89 ce             	mov    %rcx,%rsi
 804da36:	48 89 c7             	mov    %rax,%rdi
 804da39:	48 89 85 20 ff ff ff 	mov    %rax,-0xe0(%rbp)
 804da40:	4c 89 d2             	mov    %r10,%rdx
 804da43:	b8 00 00 00 00       	mov    $0x0,%eax
 804da48:	e8 23 92 03 00       	callq  8086c70 <memcpy>
 804da4d:	48 8b 85 28 ff ff ff 	mov    -0xd8(%rbp),%rax
 804da54:	48 b9 08 00 00 00 00 	movabs $0x8,%rcx
 804da5b:	00 00 00 
 804da5e:	48 01 c8             	add    %rcx,%rax
 804da61:	48 8b 8d 28 ff ff ff 	mov    -0xd8(%rbp),%rcx
 804da68:	48 ba 08 00 00 00 00 	movabs $0x8,%rdx
 804da6f:	00 00 00 
 804da72:	48 01 d1             	add    %rdx,%rcx
 804da75:	8b 11                	mov    (%rcx),%edx
 804da77:	48 8d 4d 00          	lea    0x0(%rbp),%rcx
 804da7b:	48 89 85 18 ff ff ff 	mov    %rax,-0xe8(%rbp)
 804da82:	48 89 d0             	mov    %rdx,%rax
 804da85:	48 01 c1             	add    %rax,%rcx
 804da88:	48 8b 85 18 ff ff ff 	mov    -0xe8(%rbp),%rax
 804da8f:	48 89 08             	mov    %rcx,(%rax)
 804da92:	48 8b 85 28 ff ff ff 	mov    -0xd8(%rbp),%rax
 804da99:	48 b9 10 00 00 00 00 	movabs $0x10,%rcx
 804daa0:	00 00 00 
 804daa3:	48 01 c8             	add    %rcx,%rax
 804daa6:	48 8d 8d 40 ff ff ff 	lea    -0xc0(%rbp),%rcx
 804daad:	48 89 08             	mov    %rcx,(%rax)
 804dab0:	48 8b 85 28 ff ff ff 	mov    -0xd8(%rbp),%rax
 804dab7:	49 89 c3             	mov    %rax,%r11
 804daba:	48 8b 85 38 ff ff ff 	mov    -0xc8(%rbp),%rax
 804dac1:	49 89 c2             	mov    %rax,%r10
 804dac4:	b8 01 00 00 00       	mov    $0x1,%eax
 804dac9:	48 89 c6             	mov    %rax,%rsi
 804dacc:	48 8b 85 30 ff ff ff 	mov    -0xd0(%rbp),%rax
 804dad3:	48 89 c7             	mov    %rax,%rdi
 804dad6:	4c 89 d2             	mov    %r10,%rdx
 804dad9:	4c 89 d9             	mov    %r11,%rcx
 804dadc:	b8 00 00 00 00       	mov    $0x0,%eax
 804dae1:	e8 42 f6 ff ff       	callq  804d128 <error1>
 804dae6:	48 8b 85 28 ff ff ff 	mov    -0xd8(%rbp),%rax
 804daed:	48 89 c7             	mov    %rax,%rdi
 804daf0:	b8 00 00 00 00       	mov    $0x0,%eax
 804daf5:	e8 26 a0 03 00       	callq  8087b20 <__preinit_array_end+0x80>
 804dafa:	c9                   	leaveq 
 804dafb:	c3                   	retq   

000000000804dafc <tcc_open_bf>:
 804dafc:	55                   	push   %rbp
 804dafd:	48 89 e5             	mov    %rsp,%rbp
 804db00:	48 81 ec 30 00 00 00 	sub    $0x30,%rsp
 804db07:	48 89 7d f8          	mov    %rdi,-0x8(%rbp)
 804db0b:	48 89 75 f0          	mov    %rsi,-0x10(%rbp)
 804db0f:	48 89 55 e8          	mov    %rdx,-0x18(%rbp)
 804db13:	8b 45 e8             	mov    -0x18(%rbp),%eax
 804db16:	85 c0                	test   %eax,%eax
 804db18:	0f 84 05 00 00 00    	je     804db23 <tcc_open_bf+0x27>
 804db1e:	e9 0a 00 00 00       	jmpq   804db2d <tcc_open_bf+0x31>
 804db23:	b8 00 20 00 00       	mov    $0x2000,%eax
 804db28:	e9 03 00 00 00       	jmpq   804db30 <tcc_open_bf+0x34>
 804db2d:	8b 45 e8             	mov    -0x18(%rbp),%eax
 804db30:	89 45 dc             	mov    %eax,-0x24(%rbp)
 804db33:	8b 45 dc             	mov    -0x24(%rbp),%eax
 804db36:	81 c0 40 26 00 00    	add    $0x2640,%eax
 804db3c:	48 89 c1             	mov    %rax,%rcx
 804db3f:	48 89 cf             	mov    %rcx,%rdi
 804db42:	b8 00 00 00 00       	mov    $0x0,%eax
 804db47:	e8 0c e4 ff ff       	callq  804bf58 <tcc_malloc>
 804db4c:	48 89 45 e0          	mov    %rax,-0x20(%rbp)
 804db50:	48 8b 45 e0          	mov    -0x20(%rbp),%rax
 804db54:	48 8b 4d e0          	mov    -0x20(%rbp),%rcx
 804db58:	48 ba 39 06 00 00 00 	movabs $0x639,%rdx
 804db5f:	00 00 00 
 804db62:	48 01 d1             	add    %rdx,%rcx
 804db65:	48 89 08             	mov    %rcx,(%rax)
 804db68:	48 8b 45 e0          	mov    -0x20(%rbp),%rax
 804db6c:	48 b9 08 00 00 00 00 	movabs $0x8,%rcx
 804db73:	00 00 00 
 804db76:	48 01 c8             	add    %rcx,%rax
 804db79:	48 8b 4d e0          	mov    -0x20(%rbp),%rcx
 804db7d:	48 ba 39 06 00 00 00 	movabs $0x639,%rdx
 804db84:	00 00 00 
 804db87:	48 01 d1             	add    %rdx,%rcx
 804db8a:	8b 55 e8             	mov    -0x18(%rbp),%edx
 804db8d:	48 63 d2             	movslq %edx,%rdx
 804db90:	48 89 45 d0          	mov    %rax,-0x30(%rbp)
 804db94:	48 89 d0             	mov    %rdx,%rax
 804db97:	48 01 c1             	add    %rax,%rcx
 804db9a:	48 8b 45 d0          	mov    -0x30(%rbp),%rax
 804db9e:	48 89 08             	mov    %rcx,(%rax)
 804dba1:	48 8b 45 e0          	mov    -0x20(%rbp),%rax
 804dba5:	48 b9 08 00 00 00 00 	movabs $0x8,%rcx
 804dbac:	00 00 00 
 804dbaf:	48 01 c8             	add    %rcx,%rax
 804dbb2:	48 8b 08             	mov    (%rax),%rcx
 804dbb5:	b8 5c 00 00 00       	mov    $0x5c,%eax
 804dbba:	88 01                	mov    %al,(%rcx)
 804dbbc:	48 8b 45 e0          	mov    -0x20(%rbp),%rax
 804dbc0:	48 b9 39 02 00 00 00 	movabs $0x239,%rcx
 804dbc7:	00 00 00 
 804dbca:	48 01 c8             	add    %rcx,%rax
 804dbcd:	48 8b 4d f0          	mov    -0x10(%rbp),%rcx
 804dbd1:	49 89 ca             	mov    %rcx,%r10
 804dbd4:	b9 00 04 00 00       	mov    $0x400,%ecx
 804dbd9:	48 89 ce             	mov    %rcx,%rsi
 804dbdc:	48 89 c7             	mov    %rax,%rdi
 804dbdf:	4c 89 d2             	mov    %r10,%rdx
 804dbe2:	b8 00 00 00 00       	mov    $0x0,%eax
 804dbe7:	e8 b7 e0 ff ff       	callq  804bca3 <pstrcpy>
 804dbec:	48 8b 45 e0          	mov    -0x20(%rbp),%rax
 804dbf0:	48 b9 20 00 00 00 00 	movabs $0x20,%rcx
 804dbf7:	00 00 00 
 804dbfa:	48 01 c8             	add    %rcx,%rax
 804dbfd:	b9 01 00 00 00       	mov    $0x1,%ecx
 804dc02:	89 08                	mov    %ecx,(%rax)
 804dc04:	48 8b 45 e0          	mov    -0x20(%rbp),%rax
 804dc08:	48 b9 24 00 00 00 00 	movabs $0x24,%rcx
 804dc0f:	00 00 00 
 804dc12:	48 01 c8             	add    %rcx,%rax
 804dc15:	b9 00 00 00 00       	mov    $0x0,%ecx
 804dc1a:	89 08                	mov    %ecx,(%rax)
 804dc1c:	48 8b 45 e0          	mov    -0x20(%rbp),%rax
 804dc20:	48 b9 30 00 00 00 00 	movabs $0x30,%rcx
 804dc27:	00 00 00 
 804dc2a:	48 01 c8             	add    %rcx,%rax
 804dc2d:	48 8b 4d f8          	mov    -0x8(%rbp),%rcx
 804dc31:	48 ba 10 00 00 00 00 	movabs $0x10,%rdx
 804dc38:	00 00 00 
 804dc3b:	48 01 d1             	add    %rdx,%rcx
 804dc3e:	48 8b 11             	mov    (%rcx),%rdx
 804dc41:	48 89 10             	mov    %rdx,(%rax)
 804dc44:	48 8b 45 e0          	mov    -0x20(%rbp),%rax
 804dc48:	48 b9 10 00 00 00 00 	movabs $0x10,%rcx
 804dc4f:	00 00 00 
 804dc52:	48 01 c8             	add    %rcx,%rax
 804dc55:	b9 ff ff ff ff       	mov    $0xffffffff,%ecx
 804dc5a:	89 08                	mov    %ecx,(%rax)
 804dc5c:	48 8b 45 e0          	mov    -0x20(%rbp),%rax
 804dc60:	48 b9 18 00 00 00 00 	movabs $0x18,%rcx
 804dc67:	00 00 00 
 804dc6a:	48 01 c8             	add    %rcx,%rax
 804dc6d:	48 8b 0d 2c 02 04 00 	mov    0x4022c(%rip),%rcx        # 808dea0 <_GLOBAL_OFFSET_TABLE_+0x220>
 804dc74:	48 8b 09             	mov    (%rcx),%rcx
 804dc77:	48 89 08             	mov    %rcx,(%rax)
 804dc7a:	48 8b 45 e0          	mov    -0x20(%rbp),%rax
 804dc7e:	4c 8b 1d 1b 02 04 00 	mov    0x4021b(%rip),%r11        # 808dea0 <_GLOBAL_OFFSET_TABLE_+0x220>
 804dc85:	49 89 03             	mov    %rax,(%r11)
 804dc88:	c9                   	leaveq 
 804dc89:	c3                   	retq   

000000000804dc8a <tcc_close>:
 804dc8a:	55                   	push   %rbp
 804dc8b:	48 89 e5             	mov    %rsp,%rbp
 804dc8e:	48 81 ec 10 00 00 00 	sub    $0x10,%rsp
 804dc95:	48 8b 05 04 02 04 00 	mov    0x40204(%rip),%rax        # 808dea0 <_GLOBAL_OFFSET_TABLE_+0x220>
 804dc9c:	48 8b 00             	mov    (%rax),%rax
 804dc9f:	48 89 45 f8          	mov    %rax,-0x8(%rbp)
 804dca3:	48 8b 45 f8          	mov    -0x8(%rbp),%rax
 804dca7:	48 b9 10 00 00 00 00 	movabs $0x10,%rcx
 804dcae:	00 00 00 
 804dcb1:	48 01 c8             	add    %rcx,%rax
 804dcb4:	8b 08                	mov    (%rax),%ecx
 804dcb6:	83 f9 00             	cmp    $0x0,%ecx
 804dcb9:	0f 8e 49 00 00 00    	jle    804dd08 <tcc_close+0x7e>
 804dcbf:	48 8b 45 f8          	mov    -0x8(%rbp),%rax
 804dcc3:	48 b9 10 00 00 00 00 	movabs $0x10,%rcx
 804dcca:	00 00 00 
 804dccd:	48 01 c8             	add    %rcx,%rax
 804dcd0:	8b 08                	mov    (%rax),%ecx
 804dcd2:	48 89 cf             	mov    %rcx,%rdi
 804dcd5:	b8 00 00 00 00       	mov    $0x0,%eax
 804dcda:	e8 c1 9e 03 00       	callq  8087ba0 <__preinit_array_end+0x100>
 804dcdf:	48 8b 45 f8          	mov    -0x8(%rbp),%rax
 804dce3:	48 b9 20 00 00 00 00 	movabs $0x20,%rcx
 804dcea:	00 00 00 
 804dced:	48 01 c8             	add    %rcx,%rax
 804dcf0:	48 8b 0d b9 01 04 00 	mov    0x401b9(%rip),%rcx        # 808deb0 <_GLOBAL_OFFSET_TABLE_+0x230>
 804dcf7:	8b 09                	mov    (%rcx),%ecx
 804dcf9:	8b 10                	mov    (%rax),%edx
 804dcfb:	48 01 d1             	add    %rdx,%rcx
 804dcfe:	4c 8b 1d ab 01 04 00 	mov    0x401ab(%rip),%r11        # 808deb0 <_GLOBAL_OFFSET_TABLE_+0x230>
 804dd05:	41 89 0b             	mov    %ecx,(%r11)
 804dd08:	48 8b 45 f8          	mov    -0x8(%rbp),%rax
 804dd0c:	48 b9 18 00 00 00 00 	movabs $0x18,%rcx
 804dd13:	00 00 00 
 804dd16:	48 01 c8             	add    %rcx,%rax
 804dd19:	48 8b 08             	mov    (%rax),%rcx
 804dd1c:	4c 8b 1d 7d 01 04 00 	mov    0x4017d(%rip),%r11        # 808dea0 <_GLOBAL_OFFSET_TABLE_+0x220>
 804dd23:	49 89 0b             	mov    %rcx,(%r11)
 804dd26:	48 8b 45 f8          	mov    -0x8(%rbp),%rax
 804dd2a:	48 89 c7             	mov    %rax,%rdi
 804dd2d:	b8 00 00 00 00       	mov    $0x0,%eax
 804dd32:	e8 ff e1 ff ff       	callq  804bf36 <tcc_free>
 804dd37:	c9                   	leaveq 
 804dd38:	c3                   	retq   

000000000804dd39 <tcc_open>:
 804dd39:	55                   	push   %rbp
 804dd3a:	48 89 e5             	mov    %rsp,%rbp
 804dd3d:	48 81 ec 20 00 00 00 	sub    $0x20,%rsp
 804dd44:	48 89 7d f8          	mov    %rdi,-0x8(%rbp)
 804dd48:	48 89 75 f0          	mov    %rsi,-0x10(%rbp)
 804dd4c:	48 8d 05 b8 bb 03 00 	lea    0x3bbb8(%rip),%rax        # 808990b <L.116>
 804dd53:	48 89 c6             	mov    %rax,%rsi
 804dd56:	48 8b 45 f0          	mov    -0x10(%rbp),%rax
 804dd5a:	48 89 c7             	mov    %rax,%rdi
 804dd5d:	b8 00 00 00 00       	mov    $0x0,%eax
 804dd62:	e8 79 94 03 00       	callq  80871e0 <strcmp>
 804dd67:	83 f8 00             	cmp    $0x0,%eax
 804dd6a:	0f 85 18 00 00 00    	jne    804dd88 <tcc_open+0x4f>
 804dd70:	b8 00 00 00 00       	mov    $0x0,%eax
 804dd75:	89 45 ec             	mov    %eax,-0x14(%rbp)
 804dd78:	48 8d 05 8e bb 03 00 	lea    0x3bb8e(%rip),%rax        # 808990d <L.117>
 804dd7f:	48 89 45 f0          	mov    %rax,-0x10(%rbp)
 804dd83:	e9 1c 00 00 00       	jmpq   804dda4 <tcc_open+0x6b>
 804dd88:	b8 00 00 00 00       	mov    $0x0,%eax
 804dd8d:	48 89 c6             	mov    %rax,%rsi
 804dd90:	48 8b 45 f0          	mov    -0x10(%rbp),%rax
 804dd94:	48 89 c7             	mov    %rax,%rdi
 804dd97:	b8 00 00 00 00       	mov    $0x0,%eax
 804dd9c:	e8 0f 9e 03 00       	callq  8087bb0 <__preinit_array_end+0x110>
 804dda1:	89 45 ec             	mov    %eax,-0x14(%rbp)
 804dda4:	48 8b 45 f8          	mov    -0x8(%rbp),%rax
 804dda8:	48 b9 48 01 00 00 00 	movabs $0x148,%rcx
 804ddaf:	00 00 00 
 804ddb2:	48 01 c8             	add    %rcx,%rax
 804ddb5:	8b 08                	mov    (%rax),%ecx
 804ddb7:	83 f9 02             	cmp    $0x2,%ecx
 804ddba:	0f 85 11 00 00 00    	jne    804ddd1 <tcc_open+0x98>
 804ddc0:	8b 45 ec             	mov    -0x14(%rbp),%eax
 804ddc3:	83 f8 00             	cmp    $0x0,%eax
 804ddc6:	0f 8c 05 00 00 00    	jl     804ddd1 <tcc_open+0x98>
 804ddcc:	e9 21 00 00 00       	jmpq   804ddf2 <tcc_open+0xb9>
 804ddd1:	48 8b 45 f8          	mov    -0x8(%rbp),%rax
 804ddd5:	48 b9 48 01 00 00 00 	movabs $0x148,%rcx
 804dddc:	00 00 00 
 804dddf:	48 01 c8             	add    %rcx,%rax
 804dde2:	8b 08                	mov    (%rax),%ecx
 804dde4:	83 f9 03             	cmp    $0x3,%ecx
 804dde7:	0f 84 05 00 00 00    	je     804ddf2 <tcc_open+0xb9>
 804dded:	e9 99 00 00 00       	jmpq   804de8b <tcc_open+0x152>
 804ddf2:	8b 45 ec             	mov    -0x14(%rbp),%eax
 804ddf5:	83 f8 00             	cmp    $0x0,%eax
 804ddf8:	b8 00 00 00 00       	mov    $0x0,%eax
 804ddfd:	0f 9c c0             	setl   %al
 804de00:	85 c0                	test   %eax,%eax
 804de02:	0f 84 05 00 00 00    	je     804de0d <tcc_open+0xd4>
 804de08:	e9 0c 00 00 00       	jmpq   804de19 <tcc_open+0xe0>
 804de0d:	48 8d 05 0c bb 03 00 	lea    0x3bb0c(%rip),%rax        # 8089920 <L.120>
 804de14:	e9 07 00 00 00       	jmpq   804de20 <tcc_open+0xe7>
 804de19:	48 8d 05 fd ba 03 00 	lea    0x3bafd(%rip),%rax        # 808991d <L.119>
 804de20:	48 8b 4d f8          	mov    -0x8(%rbp),%rcx
 804de24:	48 ba 08 00 00 00 00 	movabs $0x8,%rdx
 804de2b:	00 00 00 
 804de2e:	48 01 d1             	add    %rdx,%rcx
 804de31:	48 8b 55 f8          	mov    -0x8(%rbp),%rdx
 804de35:	48 89 45 e0          	mov    %rax,-0x20(%rbp)
 804de39:	48 b8 48 02 00 00 00 	movabs $0x248,%rax
 804de40:	00 00 00 
 804de43:	48 01 c2             	add    %rax,%rdx
 804de46:	48 8b 01             	mov    (%rcx),%rax
 804de49:	48 29 d0             	sub    %rdx,%rax
 804de4c:	48 89 c1             	mov    %rax,%rcx
 804de4f:	48 c1 f9 03          	sar    $0x3,%rcx
 804de53:	48 89 c8             	mov    %rcx,%rax
 804de56:	48 8b 4d f0          	mov    -0x10(%rbp),%rcx
 804de5a:	49 89 c8             	mov    %rcx,%r8
 804de5d:	48 8d 0d bf ba 03 00 	lea    0x3babf(%rip),%rcx        # 8089923 <L.121>
 804de64:	49 89 cb             	mov    %rcx,%r11
 804de67:	49 89 c2             	mov    %rax,%r10
 804de6a:	48 8b 45 e0          	mov    -0x20(%rbp),%rax
 804de6e:	48 89 c6             	mov    %rax,%rsi
 804de71:	48 8d 05 9b ba 03 00 	lea    0x3ba9b(%rip),%rax        # 8089913 <L.118>
 804de78:	48 89 c7             	mov    %rax,%rdi
 804de7b:	4c 89 d2             	mov    %r10,%rdx
 804de7e:	4c 89 d9             	mov    %r11,%rcx
 804de81:	b8 00 00 00 00       	mov    $0x0,%eax
 804de86:	e8 35 9c 03 00       	callq  8087ac0 <__preinit_array_end+0x20>
 804de8b:	8b 45 ec             	mov    -0x14(%rbp),%eax
 804de8e:	83 f8 00             	cmp    $0x0,%eax
 804de91:	0f 8d 0a 00 00 00    	jge    804dea1 <tcc_open+0x168>
 804de97:	b8 ff ff ff ff       	mov    $0xffffffff,%eax
 804de9c:	e9 47 00 00 00       	jmpq   804dee8 <tcc_open+0x1af>
 804dea1:	b8 00 00 00 00       	mov    $0x0,%eax
 804dea6:	49 89 c2             	mov    %rax,%r10
 804dea9:	48 8b 45 f0          	mov    -0x10(%rbp),%rax
 804dead:	48 89 c6             	mov    %rax,%rsi
 804deb0:	48 8b 45 f8          	mov    -0x8(%rbp),%rax
 804deb4:	48 89 c7             	mov    %rax,%rdi
 804deb7:	4c 89 d2             	mov    %r10,%rdx
 804deba:	b8 00 00 00 00       	mov    $0x0,%eax
 804debf:	e8 38 fc ff ff       	callq  804dafc <tcc_open_bf>
 804dec4:	48 8b 05 d5 ff 03 00 	mov    0x3ffd5(%rip),%rax        # 808dea0 <_GLOBAL_OFFSET_TABLE_+0x220>
 804decb:	48 8b 00             	mov    (%rax),%rax
 804dece:	48 b9 10 00 00 00 00 	movabs $0x10,%rcx
 804ded5:	00 00 00 
 804ded8:	48 01 c8             	add    %rcx,%rax
 804dedb:	8b 4d ec             	mov    -0x14(%rbp),%ecx
 804dede:	89 08                	mov    %ecx,(%rax)
 804dee0:	8b 45 ec             	mov    -0x14(%rbp),%eax
 804dee3:	e9 00 00 00 00       	jmpq   804dee8 <tcc_open+0x1af>
 804dee8:	c9                   	leaveq 
 804dee9:	c3                   	retq   

000000000804deea <tcc_compile>:
 804deea:	55                   	push   %rbp
 804deeb:	48 89 e5             	mov    %rsp,%rbp
 804deee:	48 81 ec 20 02 00 00 	sub    $0x220,%rsp
 804def5:	48 89 7d f8          	mov    %rdi,-0x8(%rbp)
 804def9:	48 8b 45 f8          	mov    -0x8(%rbp),%rax
 804defd:	48 89 c7             	mov    %rax,%rdi
 804df00:	b8 00 00 00 00       	mov    $0x0,%eax
 804df05:	e8 02 ab 00 00       	callq  8058a0c <preprocess_init>
 804df0a:	b8 00 00 00 00       	mov    $0x0,%eax
 804df0f:	4c 8b 1d a2 ff 03 00 	mov    0x3ffa2(%rip),%r11        # 808deb8 <_GLOBAL_OFFSET_TABLE_+0x238>
 804df16:	49 89 03             	mov    %rax,(%r11)
 804df19:	48 8d 05 04 ba 03 00 	lea    0x3ba04(%rip),%rax        # 8089924 <L.122>
 804df20:	4c 8b 1d 99 ff 03 00 	mov    0x3ff99(%rip),%r11        # 808dec0 <_GLOBAL_OFFSET_TABLE_+0x240>
 804df27:	49 89 03             	mov    %rax,(%r11)
 804df2a:	b8 00 00 00 10       	mov    $0x10000000,%eax
 804df2f:	4c 8b 1d 92 ff 03 00 	mov    0x3ff92(%rip),%r11        # 808dec8 <_GLOBAL_OFFSET_TABLE_+0x248>
 804df36:	41 89 03             	mov    %eax,(%r11)
 804df39:	b8 00 00 00 00       	mov    $0x0,%eax
 804df3e:	89 85 e4 fd ff ff    	mov    %eax,-0x21c(%rbp)
 804df44:	48 8b 45 f8          	mov    -0x8(%rbp),%rax
 804df48:	48 b9 4c 01 00 00 00 	movabs $0x14c,%rcx
 804df4f:	00 00 00 
 804df52:	48 01 c8             	add    %rcx,%rax
 804df55:	8b 08                	mov    (%rax),%ecx
 804df57:	85 c9                	test   %ecx,%ecx
 804df59:	0f 84 7f 01 00 00    	je     804e0de <tcc_compile+0x1f4>
 804df5f:	48 8b 05 6a ff 03 00 	mov    0x3ff6a(%rip),%rax        # 808ded0 <_GLOBAL_OFFSET_TABLE_+0x250>
 804df66:	48 8b 00             	mov    (%rax),%rax
 804df69:	48 b9 1c 00 00 00 00 	movabs $0x1c,%rcx
 804df70:	00 00 00 
 804df73:	48 01 c8             	add    %rcx,%rax
 804df76:	50                   	push   %rax
 804df77:	b9 00 00 00 00       	mov    $0x0,%ecx
 804df7c:	51                   	push   %rcx
 804df7d:	8b 08                	mov    (%rax),%ecx
 804df7f:	49 89 c9             	mov    %rcx,%r9
 804df82:	b8 00 00 00 00       	mov    $0x0,%eax
 804df87:	49 89 c0             	mov    %rax,%r8
 804df8a:	b8 03 00 00 00       	mov    $0x3,%eax
 804df8f:	49 89 c3             	mov    %rax,%r11
 804df92:	48 b8 00 00 00 00 00 	movabs $0x0,%rax
 804df99:	00 00 00 
 804df9c:	49 89 c2             	mov    %rax,%r10
 804df9f:	48 b8 00 00 00 00 00 	movabs $0x0,%rax
 804dfa6:	00 00 00 
 804dfa9:	48 89 c6             	mov    %rax,%rsi
 804dfac:	48 8b 05 e5 fe 03 00 	mov    0x3fee5(%rip),%rax        # 808de98 <_GLOBAL_OFFSET_TABLE_+0x218>
 804dfb3:	48 8b 00             	mov    (%rax),%rax
 804dfb6:	48 89 c7             	mov    %rax,%rdi
 804dfb9:	4c 89 d2             	mov    %r10,%rdx
 804dfbc:	4c 89 d9             	mov    %r11,%rcx
 804dfbf:	b8 00 00 00 00       	mov    $0x0,%eax
 804dfc4:	e8 64 fc 01 00       	callq  806dc2d <put_elf_sym>
 804dfc9:	48 83 c4 10          	add    $0x10,%rsp
 804dfcd:	89 85 e4 fd ff ff    	mov    %eax,-0x21c(%rbp)
 804dfd3:	b8 00 02 00 00       	mov    $0x200,%eax
 804dfd8:	48 89 c6             	mov    %rax,%rsi
 804dfdb:	48 8d 85 e8 fd ff ff 	lea    -0x218(%rbp),%rax
 804dfe2:	48 89 c7             	mov    %rax,%rdi
 804dfe5:	b8 00 00 00 00       	mov    $0x0,%eax
 804dfea:	e8 d1 9b 03 00       	callq  8087bc0 <__preinit_array_end+0x120>
 804dfef:	48 8d 05 2f b9 03 00 	lea    0x3b92f(%rip),%rax        # 8089925 <L.123>
 804dff6:	49 89 c2             	mov    %rax,%r10
 804dff9:	b8 00 02 00 00       	mov    $0x200,%eax
 804dffe:	48 89 c6             	mov    %rax,%rsi
 804e001:	48 8d 85 e8 fd ff ff 	lea    -0x218(%rbp),%rax
 804e008:	48 89 c7             	mov    %rax,%rdi
 804e00b:	4c 89 d2             	mov    %r10,%rdx
 804e00e:	b8 00 00 00 00       	mov    $0x0,%eax
 804e013:	e8 53 dd ff ff       	callq  804bd6b <pstrcat>
 804e018:	48 8b 05 b1 fe 03 00 	mov    0x3feb1(%rip),%rax        # 808ded0 <_GLOBAL_OFFSET_TABLE_+0x250>
 804e01f:	48 8b 00             	mov    (%rax),%rax
 804e022:	50                   	push   %rax
 804e023:	8b 8d e4 fd ff ff    	mov    -0x21c(%rbp),%ecx
 804e029:	51                   	push   %rcx
 804e02a:	48 8b 0d 9f fe 03 00 	mov    0x3fe9f(%rip),%rcx        # 808ded0 <_GLOBAL_OFFSET_TABLE_+0x250>
 804e031:	48 8b 09             	mov    (%rcx),%rcx
 804e034:	49 89 c9             	mov    %rcx,%r9
 804e037:	48 8b 08             	mov    (%rax),%rcx
 804e03a:	49 89 c8             	mov    %rcx,%r8
 804e03d:	b8 00 00 00 00       	mov    $0x0,%eax
 804e042:	49 89 c3             	mov    %rax,%r11
 804e045:	b8 00 00 00 00       	mov    $0x0,%eax
 804e04a:	49 89 c2             	mov    %rax,%r10
 804e04d:	b8 64 00 00 00       	mov    $0x64,%eax
 804e052:	48 89 c6             	mov    %rax,%rsi
 804e055:	48 8d 85 e8 fd ff ff 	lea    -0x218(%rbp),%rax
 804e05c:	48 89 c7             	mov    %rax,%rdi
 804e05f:	4c 89 d2             	mov    %r10,%rdx
 804e062:	4c 89 d9             	mov    %r11,%rcx
 804e065:	b8 00 00 00 00       	mov    $0x0,%eax
 804e06a:	e8 af 08 02 00       	callq  806e91e <put_stabs_r>
 804e06f:	48 83 c4 10          	add    $0x10,%rsp
 804e073:	48 8b 05 26 fe 03 00 	mov    0x3fe26(%rip),%rax        # 808dea0 <_GLOBAL_OFFSET_TABLE_+0x220>
 804e07a:	48 8b 00             	mov    (%rax),%rax
 804e07d:	48 b9 39 02 00 00 00 	movabs $0x239,%rcx
 804e084:	00 00 00 
 804e087:	48 01 c8             	add    %rcx,%rax
 804e08a:	48 8b 0d 3f fe 03 00 	mov    0x3fe3f(%rip),%rcx        # 808ded0 <_GLOBAL_OFFSET_TABLE_+0x250>
 804e091:	48 8b 09             	mov    (%rcx),%rcx
 804e094:	50                   	push   %rax
 804e095:	8b 95 e4 fd ff ff    	mov    -0x21c(%rbp),%edx
 804e09b:	52                   	push   %rdx
 804e09c:	48 8b 15 2d fe 03 00 	mov    0x3fe2d(%rip),%rdx        # 808ded0 <_GLOBAL_OFFSET_TABLE_+0x250>
 804e0a3:	48 8b 12             	mov    (%rdx),%rdx
 804e0a6:	49 89 d1             	mov    %rdx,%r9
 804e0a9:	48 8b 11             	mov    (%rcx),%rdx
 804e0ac:	49 89 d0             	mov    %rdx,%r8
 804e0af:	b9 00 00 00 00       	mov    $0x0,%ecx
 804e0b4:	49 89 cb             	mov    %rcx,%r11
 804e0b7:	b9 00 00 00 00       	mov    $0x0,%ecx
 804e0bc:	49 89 ca             	mov    %rcx,%r10
 804e0bf:	b9 64 00 00 00       	mov    $0x64,%ecx
 804e0c4:	48 89 ce             	mov    %rcx,%rsi
 804e0c7:	48 89 c7             	mov    %rax,%rdi
 804e0ca:	4c 89 d2             	mov    %r10,%rdx
 804e0cd:	4c 89 d9             	mov    %r11,%rcx
 804e0d0:	b8 00 00 00 00       	mov    $0x0,%eax
 804e0d5:	e8 44 08 02 00       	callq  806e91e <put_stabs_r>
 804e0da:	48 83 c4 10          	add    $0x10,%rsp
 804e0de:	48 8b 05 bb fd 03 00 	mov    0x3fdbb(%rip),%rax        # 808dea0 <_GLOBAL_OFFSET_TABLE_+0x220>
 804e0e5:	48 8b 00             	mov    (%rax),%rax
 804e0e8:	48 b9 39 02 00 00 00 	movabs $0x239,%rcx
 804e0ef:	00 00 00 
 804e0f2:	48 01 c8             	add    %rcx,%rax
 804e0f5:	50                   	push   %rax
 804e0f6:	50                   	push   %rax
 804e0f7:	b8 f1 ff 00 00       	mov    $0xfff1,%eax
 804e0fc:	49 89 c1             	mov    %rax,%r9
 804e0ff:	b8 00 00 00 00       	mov    $0x0,%eax
 804e104:	49 89 c0             	mov    %rax,%r8
 804e107:	b8 04 00 00 00       	mov    $0x4,%eax
 804e10c:	49 89 c3             	mov    %rax,%r11
 804e10f:	48 b8 00 00 00 00 00 	movabs $0x0,%rax
 804e116:	00 00 00 
 804e119:	49 89 c2             	mov    %rax,%r10
 804e11c:	48 b8 00 00 00 00 00 	movabs $0x0,%rax
 804e123:	00 00 00 
 804e126:	48 89 c6             	mov    %rax,%rsi
 804e129:	48 8b 05 68 fd 03 00 	mov    0x3fd68(%rip),%rax        # 808de98 <_GLOBAL_OFFSET_TABLE_+0x218>
 804e130:	48 8b 00             	mov    (%rax),%rax
 804e133:	48 89 c7             	mov    %rax,%rdi
 804e136:	4c 89 d2             	mov    %r10,%rdx
 804e139:	4c 89 d9             	mov    %r11,%rcx
 804e13c:	b8 00 00 00 00       	mov    $0x0,%eax
 804e141:	e8 e7 fa 01 00       	callq  806dc2d <put_elf_sym>
 804e146:	48 83 c4 10          	add    $0x10,%rsp
 804e14a:	b8 00 00 00 00       	mov    $0x0,%eax
 804e14f:	4c 8b 1d 82 fd 03 00 	mov    0x3fd82(%rip),%r11        # 808ded8 <_GLOBAL_OFFSET_TABLE_+0x258>
 804e156:	41 89 03             	mov    %eax,(%r11)
 804e159:	b8 01 00 00 00       	mov    $0x1,%eax
 804e15e:	4c 8b 1d 7b fd 03 00 	mov    0x3fd7b(%rip),%r11        # 808dee0 <_GLOBAL_OFFSET_TABLE_+0x260>
 804e165:	41 89 03             	mov    %eax,(%r11)
 804e168:	48 8b 05 71 fd 03 00 	mov    0x3fd71(%rip),%rax        # 808dee0 <_GLOBAL_OFFSET_TABLE_+0x260>
 804e16f:	48 89 c7             	mov    %rax,%rdi
 804e172:	b8 00 00 00 00       	mov    $0x0,%eax
 804e177:	e8 72 2f 01 00       	callq  80610ee <mk_pointer>
 804e17c:	b8 0c 00 00 00       	mov    $0xc,%eax
 804e181:	4c 8b 1d 60 fd 03 00 	mov    0x3fd60(%rip),%r11        # 808dee8 <_GLOBAL_OFFSET_TABLE_+0x268>
 804e188:	41 89 03             	mov    %eax,(%r11)
 804e18b:	b8 06 00 00 00       	mov    $0x6,%eax
 804e190:	4c 8b 1d 59 fd 03 00 	mov    0x3fd59(%rip),%r11        # 808def0 <_GLOBAL_OFFSET_TABLE_+0x270>
 804e197:	41 89 03             	mov    %eax,(%r11)
 804e19a:	b8 02 00 00 00       	mov    $0x2,%eax
 804e19f:	49 89 c3             	mov    %rax,%r11
 804e1a2:	b8 00 00 00 00       	mov    $0x0,%eax
 804e1a7:	49 89 c2             	mov    %rax,%r10
 804e1aa:	48 8b 05 27 fd 03 00 	mov    0x3fd27(%rip),%rax        # 808ded8 <_GLOBAL_OFFSET_TABLE_+0x258>
 804e1b1:	48 89 c6             	mov    %rax,%rsi
 804e1b4:	b8 00 00 00 20       	mov    $0x20000000,%eax
 804e1b9:	48 89 c7             	mov    %rax,%rdi
 804e1bc:	4c 89 d2             	mov    %r10,%rdx
 804e1bf:	4c 89 d9             	mov    %r11,%rcx
 804e1c2:	b8 00 00 00 00       	mov    $0x0,%eax
 804e1c7:	e8 8f df 00 00       	callq  805c15b <sym_push>
 804e1cc:	4c 8b 1d 1d fd 03 00 	mov    0x3fd1d(%rip),%r11        # 808def0 <_GLOBAL_OFFSET_TABLE_+0x270>
 804e1d3:	49 81 c3 08 00 00 00 	add    $0x8,%r11
 804e1da:	49 89 03             	mov    %rax,(%r11)
 804e1dd:	48 8b 05 14 fd 03 00 	mov    0x3fd14(%rip),%rax        # 808def8 <_GLOBAL_OFFSET_TABLE_+0x278>
 804e1e4:	48 8b 00             	mov    (%rax),%rax
 804e1e7:	48 89 45 f0          	mov    %rax,-0x10(%rbp)
 804e1eb:	b8 01 00 00 00       	mov    $0x1,%eax
 804e1f0:	4c 8b 1d 09 fd 03 00 	mov    0x3fd09(%rip),%r11        # 808df00 <_GLOBAL_OFFSET_TABLE_+0x280>
 804e1f7:	41 89 03             	mov    %eax,(%r11)
 804e1fa:	48 8b 45 f8          	mov    -0x8(%rbp),%rax
 804e1fe:	48 b9 70 01 00 00 00 	movabs $0x170,%rcx
 804e205:	00 00 00 
 804e208:	48 01 c8             	add    %rcx,%rax
 804e20b:	48 89 c7             	mov    %rax,%rdi
 804e20e:	b8 00 00 00 00       	mov    $0x0,%eax
 804e213:	e8 b8 99 03 00       	callq  8087bd0 <__preinit_array_end+0x130>
 804e218:	83 f8 00             	cmp    $0x0,%eax
 804e21b:	0f 85 83 01 00 00    	jne    804e3a4 <tcc_compile+0x4ba>
 804e221:	48 8b 45 f8          	mov    -0x8(%rbp),%rax
 804e225:	48 b9 38 02 00 00 00 	movabs $0x238,%rcx
 804e22c:	00 00 00 
 804e22f:	48 01 c8             	add    %rcx,%rax
 804e232:	b9 00 00 00 00       	mov    $0x0,%ecx
 804e237:	89 08                	mov    %ecx,(%rax)
 804e239:	48 8b 45 f8          	mov    -0x8(%rbp),%rax
 804e23d:	48 b9 68 01 00 00 00 	movabs $0x168,%rcx
 804e244:	00 00 00 
 804e247:	48 01 c8             	add    %rcx,%rax
 804e24a:	b9 01 00 00 00       	mov    $0x1,%ecx
 804e24f:	89 08                	mov    %ecx,(%rax)
 804e251:	48 8b 05 48 fc 03 00 	mov    0x3fc48(%rip),%rax        # 808dea0 <_GLOBAL_OFFSET_TABLE_+0x220>
 804e258:	48 8b 00             	mov    (%rax),%rax
 804e25b:	48 8b 08             	mov    (%rax),%rcx
 804e25e:	0f b6 01             	movzbl (%rcx),%eax
 804e261:	4c 8b 1d a0 fc 03 00 	mov    0x3fca0(%rip),%r11        # 808df08 <_GLOBAL_OFFSET_TABLE_+0x288>
 804e268:	41 89 03             	mov    %eax,(%r11)
 804e26b:	b8 03 00 00 00       	mov    $0x3,%eax
 804e270:	4c 8b 1d 99 fc 03 00 	mov    0x3fc99(%rip),%r11        # 808df10 <_GLOBAL_OFFSET_TABLE_+0x290>
 804e277:	41 89 03             	mov    %eax,(%r11)
 804e27a:	b8 03 00 00 00       	mov    $0x3,%eax
 804e27f:	4c 8b 1d 92 fc 03 00 	mov    0x3fc92(%rip),%r11        # 808df18 <_GLOBAL_OFFSET_TABLE_+0x298>
 804e286:	41 89 03             	mov    %eax,(%r11)
 804e289:	48 8b 05 90 fc 03 00 	mov    0x3fc90(%rip),%rax        # 808df20 <_GLOBAL_OFFSET_TABLE_+0x2a0>
 804e290:	48 8b 00             	mov    (%rax),%rax
 804e293:	48 89 45 e8          	mov    %rax,-0x18(%rbp)
 804e297:	b8 00 00 00 00       	mov    $0x0,%eax
 804e29c:	e8 29 a4 00 00       	callq  80586ca <next>
 804e2a1:	b8 30 00 00 00       	mov    $0x30,%eax
 804e2a6:	48 89 c7             	mov    %rax,%rdi
 804e2a9:	b8 00 00 00 00       	mov    $0x0,%eax
 804e2ae:	e8 a2 f1 01 00       	callq  806d455 <decl>
 804e2b3:	48 8b 05 6e fc 03 00 	mov    0x3fc6e(%rip),%rax        # 808df28 <_GLOBAL_OFFSET_TABLE_+0x2a8>
 804e2ba:	8b 00                	mov    (%rax),%eax
 804e2bc:	83 f8 ff             	cmp    $0xffffffff,%eax
 804e2bf:	0f 84 14 00 00 00    	je     804e2d9 <tcc_compile+0x3ef>
 804e2c5:	48 8d 05 5b b6 03 00 	lea    0x3b65b(%rip),%rax        # 8089927 <L.124>
 804e2cc:	48 89 c7             	mov    %rax,%rdi
 804e2cf:	b8 00 00 00 00       	mov    $0x0,%eax
 804e2d4:	e8 79 2e 00 00       	callq  8051152 <expect>
 804e2d9:	48 8b 45 e8          	mov    -0x18(%rbp),%rax
 804e2dd:	48 8b 0d 3c fc 03 00 	mov    0x3fc3c(%rip),%rcx        # 808df20 <_GLOBAL_OFFSET_TABLE_+0x2a0>
 804e2e4:	48 8b 09             	mov    (%rcx),%rcx
 804e2e7:	48 89 c2             	mov    %rax,%rdx
 804e2ea:	48 89 c8             	mov    %rcx,%rax
 804e2ed:	48 39 c2             	cmp    %rax,%rdx
 804e2f0:	0f 84 3a 00 00 00    	je     804e330 <tcc_compile+0x446>
 804e2f6:	48 8b 05 23 fc 03 00 	mov    0x3fc23(%rip),%rax        # 808df20 <_GLOBAL_OFFSET_TABLE_+0x2a0>
 804e2fd:	48 8b 00             	mov    (%rax),%rax
 804e300:	48 8b 4d e8          	mov    -0x18(%rbp),%rcx
 804e304:	48 29 c8             	sub    %rcx,%rax
 804e307:	48 b9 30 00 00 00 00 	movabs $0x30,%rcx
 804e30e:	00 00 00 
 804e311:	48 99                	cqto   
 804e313:	48 f7 f9             	idiv   %rcx
 804e316:	48 89 c1             	mov    %rax,%rcx
 804e319:	48 89 ce             	mov    %rcx,%rsi
 804e31c:	48 8d 05 10 b6 03 00 	lea    0x3b610(%rip),%rax        # 8089933 <L.125>
 804e323:	48 89 c7             	mov    %rax,%rdi
 804e326:	b8 00 00 00 00       	mov    $0x0,%eax
 804e32b:	e8 cf f5 ff ff       	callq  804d8ff <tcc_warning>
 804e330:	48 8b 45 f8          	mov    -0x8(%rbp),%rax
 804e334:	48 b9 4c 01 00 00 00 	movabs $0x14c,%rcx
 804e33b:	00 00 00 
 804e33e:	48 01 c8             	add    %rcx,%rax
 804e341:	8b 08                	mov    (%rax),%ecx
 804e343:	85 c9                	test   %ecx,%ecx
 804e345:	0f 84 59 00 00 00    	je     804e3a4 <tcc_compile+0x4ba>
 804e34b:	48 8b 05 7e fb 03 00 	mov    0x3fb7e(%rip),%rax        # 808ded0 <_GLOBAL_OFFSET_TABLE_+0x250>
 804e352:	48 8b 00             	mov    (%rax),%rax
 804e355:	50                   	push   %rax
 804e356:	8b 8d e4 fd ff ff    	mov    -0x21c(%rbp),%ecx
 804e35c:	51                   	push   %rcx
 804e35d:	48 8b 0d 6c fb 03 00 	mov    0x3fb6c(%rip),%rcx        # 808ded0 <_GLOBAL_OFFSET_TABLE_+0x250>
 804e364:	48 8b 09             	mov    (%rcx),%rcx
 804e367:	49 89 c9             	mov    %rcx,%r9
 804e36a:	48 8b 08             	mov    (%rax),%rcx
 804e36d:	49 89 c8             	mov    %rcx,%r8
 804e370:	b8 00 00 00 00       	mov    $0x0,%eax
 804e375:	49 89 c3             	mov    %rax,%r11
 804e378:	b8 00 00 00 00       	mov    $0x0,%eax
 804e37d:	49 89 c2             	mov    %rax,%r10
 804e380:	b8 64 00 00 00       	mov    $0x64,%eax
 804e385:	48 89 c6             	mov    %rax,%rsi
 804e388:	b8 00 00 00 00       	mov    $0x0,%eax
 804e38d:	48 89 c7             	mov    %rax,%rdi
 804e390:	4c 89 d2             	mov    %r10,%rdx
 804e393:	4c 89 d9             	mov    %r11,%rcx
 804e396:	b8 00 00 00 00       	mov    $0x0,%eax
 804e39b:	e8 7e 05 02 00       	callq  806e91e <put_stabs_r>
 804e3a0:	48 83 c4 10          	add    $0x10,%rsp
 804e3a4:	48 8b 45 f8          	mov    -0x8(%rbp),%rax
 804e3a8:	48 b9 68 01 00 00 00 	movabs $0x168,%rcx
 804e3af:	00 00 00 
 804e3b2:	48 01 c8             	add    %rcx,%rax
 804e3b5:	b9 00 00 00 00       	mov    $0x0,%ecx
 804e3ba:	89 08                	mov    %ecx,(%rax)
 804e3bc:	48 8b 45 f0          	mov    -0x10(%rbp),%rax
 804e3c0:	48 89 c7             	mov    %rax,%rdi
 804e3c3:	b8 00 00 00 00       	mov    $0x0,%eax
 804e3c8:	e8 b0 5a 00 00       	callq  8053e7d <free_defines>
 804e3cd:	b8 00 00 00 00       	mov    $0x0,%eax
 804e3d2:	e8 e6 e0 01 00       	callq  806c4bd <gen_inline_functions>
 804e3d7:	b8 00 00 00 00       	mov    $0x0,%eax
 804e3dc:	48 89 c6             	mov    %rax,%rsi
 804e3df:	48 8b 05 4a fb 03 00 	mov    0x3fb4a(%rip),%rax        # 808df30 <_GLOBAL_OFFSET_TABLE_+0x2b0>
 804e3e6:	48 89 c7             	mov    %rax,%rdi
 804e3e9:	b8 00 00 00 00       	mov    $0x0,%eax
 804e3ee:	e8 fd df 00 00       	callq  805c3f0 <sym_pop>
 804e3f3:	b8 00 00 00 00       	mov    $0x0,%eax
 804e3f8:	48 89 c6             	mov    %rax,%rsi
 804e3fb:	48 8b 05 36 fb 03 00 	mov    0x3fb36(%rip),%rax        # 808df38 <_GLOBAL_OFFSET_TABLE_+0x2b8>
 804e402:	48 89 c7             	mov    %rax,%rdi
 804e405:	b8 00 00 00 00       	mov    $0x0,%eax
 804e40a:	e8 e1 df 00 00       	callq  805c3f0 <sym_pop>
 804e40f:	48 8b 45 f8          	mov    -0x8(%rbp),%rax
 804e413:	48 b9 38 02 00 00 00 	movabs $0x238,%rcx
 804e41a:	00 00 00 
 804e41d:	48 01 c8             	add    %rcx,%rax
 804e420:	8b 08                	mov    (%rax),%ecx
 804e422:	83 f9 00             	cmp    $0x0,%ecx
 804e425:	0f 84 05 00 00 00    	je     804e430 <tcc_compile+0x546>
 804e42b:	e9 0a 00 00 00       	jmpq   804e43a <tcc_compile+0x550>
 804e430:	b8 00 00 00 00       	mov    $0x0,%eax
 804e435:	e9 05 00 00 00       	jmpq   804e43f <tcc_compile+0x555>
 804e43a:	b8 ff ff ff ff       	mov    $0xffffffff,%eax
 804e43f:	e9 00 00 00 00       	jmpq   804e444 <tcc_compile+0x55a>
 804e444:	c9                   	leaveq 
 804e445:	c3                   	retq   

000000000804e446 <tcc_compile_string>:
 804e446:	55                   	push   %rbp
 804e447:	48 89 e5             	mov    %rsp,%rbp
 804e44a:	48 81 ec 20 00 00 00 	sub    $0x20,%rsp
 804e451:	48 89 7d f8          	mov    %rdi,-0x8(%rbp)
 804e455:	48 89 75 f0          	mov    %rsi,-0x10(%rbp)
 804e459:	48 8b 45 f0          	mov    -0x10(%rbp),%rax
 804e45d:	48 89 c7             	mov    %rax,%rdi
 804e460:	b8 00 00 00 00       	mov    $0x0,%eax
 804e465:	e8 76 8e 03 00       	callq  80872e0 <strlen>
 804e46a:	89 45 ec             	mov    %eax,-0x14(%rbp)
 804e46d:	8b 45 ec             	mov    -0x14(%rbp),%eax
 804e470:	49 89 c2             	mov    %rax,%r10
 804e473:	48 8d 05 e4 b4 03 00 	lea    0x3b4e4(%rip),%rax        # 808995e <L.126>
 804e47a:	48 89 c6             	mov    %rax,%rsi
 804e47d:	48 8b 45 f8          	mov    -0x8(%rbp),%rax
 804e481:	48 89 c7             	mov    %rax,%rdi
 804e484:	4c 89 d2             	mov    %r10,%rdx
 804e487:	b8 00 00 00 00       	mov    $0x0,%eax
 804e48c:	e8 6b f6 ff ff       	callq  804dafc <tcc_open_bf>
 804e491:	48 8b 05 08 fa 03 00 	mov    0x3fa08(%rip),%rax        # 808dea0 <_GLOBAL_OFFSET_TABLE_+0x220>
 804e498:	48 8b 00             	mov    (%rax),%rax
 804e49b:	48 b9 39 06 00 00 00 	movabs $0x639,%rcx
 804e4a2:	00 00 00 
 804e4a5:	48 01 c8             	add    %rcx,%rax
 804e4a8:	8b 4d ec             	mov    -0x14(%rbp),%ecx
 804e4ab:	49 89 ca             	mov    %rcx,%r10
 804e4ae:	48 8b 4d f0          	mov    -0x10(%rbp),%rcx
 804e4b2:	48 89 ce             	mov    %rcx,%rsi
 804e4b5:	48 89 c7             	mov    %rax,%rdi
 804e4b8:	4c 89 d2             	mov    %r10,%rdx
 804e4bb:	b8 00 00 00 00       	mov    $0x0,%eax
 804e4c0:	e8 ab 87 03 00       	callq  8086c70 <memcpy>
 804e4c5:	48 8b 45 f8          	mov    -0x8(%rbp),%rax
 804e4c9:	48 89 c7             	mov    %rax,%rdi
 804e4cc:	b8 00 00 00 00       	mov    $0x0,%eax
 804e4d1:	e8 14 fa ff ff       	callq  804deea <tcc_compile>
 804e4d6:	89 45 e8             	mov    %eax,-0x18(%rbp)
 804e4d9:	b8 00 00 00 00       	mov    $0x0,%eax
 804e4de:	e8 a7 f7 ff ff       	callq  804dc8a <tcc_close>
 804e4e3:	8b 45 e8             	mov    -0x18(%rbp),%eax
 804e4e6:	e9 00 00 00 00       	jmpq   804e4eb <tcc_compile_string+0xa5>
 804e4eb:	c9                   	leaveq 
 804e4ec:	c3                   	retq   

000000000804e4ed <tcc_define_symbol>:
 804e4ed:	55                   	push   %rbp
 804e4ee:	48 89 e5             	mov    %rsp,%rbp
 804e4f1:	48 81 ec 20 00 00 00 	sub    $0x20,%rsp
 804e4f8:	48 89 7d f8          	mov    %rdi,-0x8(%rbp)
 804e4fc:	48 89 75 f0          	mov    %rsi,-0x10(%rbp)
 804e500:	48 89 55 e8          	mov    %rdx,-0x18(%rbp)
 804e504:	48 8b 45 e8          	mov    -0x18(%rbp),%rax
 804e508:	85 c0                	test   %eax,%eax
 804e50a:	0f 84 05 00 00 00    	je     804e515 <tcc_define_symbol+0x28>
 804e510:	e9 0b 00 00 00       	jmpq   804e520 <tcc_define_symbol+0x33>
 804e515:	48 8d 05 4b b4 03 00 	lea    0x3b44b(%rip),%rax        # 8089967 <L.127>
 804e51c:	48 89 45 e8          	mov    %rax,-0x18(%rbp)
 804e520:	48 8b 45 f0          	mov    -0x10(%rbp),%rax
 804e524:	48 89 c7             	mov    %rax,%rdi
 804e527:	b8 00 00 00 00       	mov    $0x0,%eax
 804e52c:	e8 af 8d 03 00       	callq  80872e0 <strlen>
 804e531:	89 45 e4             	mov    %eax,-0x1c(%rbp)
 804e534:	48 8b 45 e8          	mov    -0x18(%rbp),%rax
 804e538:	48 89 c7             	mov    %rax,%rdi
 804e53b:	b8 00 00 00 00       	mov    $0x0,%eax
 804e540:	e8 9b 8d 03 00       	callq  80872e0 <strlen>
 804e545:	89 45 e0             	mov    %eax,-0x20(%rbp)
 804e548:	8b 45 e4             	mov    -0x1c(%rbp),%eax
 804e54b:	8b 4d e0             	mov    -0x20(%rbp),%ecx
 804e54e:	48 01 c8             	add    %rcx,%rax
 804e551:	83 c0 01             	add    $0x1,%eax
 804e554:	49 89 c2             	mov    %rax,%r10
 804e557:	48 8d 05 0b b4 03 00 	lea    0x3b40b(%rip),%rax        # 8089969 <L.128>
 804e55e:	48 89 c6             	mov    %rax,%rsi
 804e561:	48 8b 45 f8          	mov    -0x8(%rbp),%rax
 804e565:	48 89 c7             	mov    %rax,%rdi
 804e568:	4c 89 d2             	mov    %r10,%rdx
 804e56b:	b8 00 00 00 00       	mov    $0x0,%eax
 804e570:	e8 87 f5 ff ff       	callq  804dafc <tcc_open_bf>
 804e575:	48 8b 05 24 f9 03 00 	mov    0x3f924(%rip),%rax        # 808dea0 <_GLOBAL_OFFSET_TABLE_+0x220>
 804e57c:	48 8b 00             	mov    (%rax),%rax
 804e57f:	48 b9 39 06 00 00 00 	movabs $0x639,%rcx
 804e586:	00 00 00 
 804e589:	48 01 c8             	add    %rcx,%rax
 804e58c:	8b 4d e4             	mov    -0x1c(%rbp),%ecx
 804e58f:	49 89 ca             	mov    %rcx,%r10
 804e592:	48 8b 4d f0          	mov    -0x10(%rbp),%rcx
 804e596:	48 89 ce             	mov    %rcx,%rsi
 804e599:	48 89 c7             	mov    %rax,%rdi
 804e59c:	4c 89 d2             	mov    %r10,%rdx
 804e59f:	b8 00 00 00 00       	mov    $0x0,%eax
 804e5a4:	e8 c7 86 03 00       	callq  8086c70 <memcpy>
 804e5a9:	48 8b 05 f0 f8 03 00 	mov    0x3f8f0(%rip),%rax        # 808dea0 <_GLOBAL_OFFSET_TABLE_+0x220>
 804e5b0:	48 8b 00             	mov    (%rax),%rax
 804e5b3:	48 b9 39 06 00 00 00 	movabs $0x639,%rcx
 804e5ba:	00 00 00 
 804e5bd:	48 01 c8             	add    %rcx,%rax
 804e5c0:	8b 4d e4             	mov    -0x1c(%rbp),%ecx
 804e5c3:	48 63 c9             	movslq %ecx,%rcx
 804e5c6:	48 89 ca             	mov    %rcx,%rdx
 804e5c9:	48 01 d0             	add    %rdx,%rax
 804e5cc:	b9 20 00 00 00       	mov    $0x20,%ecx
 804e5d1:	88 08                	mov    %cl,(%rax)
 804e5d3:	48 8b 05 c6 f8 03 00 	mov    0x3f8c6(%rip),%rax        # 808dea0 <_GLOBAL_OFFSET_TABLE_+0x220>
 804e5da:	48 8b 00             	mov    (%rax),%rax
 804e5dd:	48 b9 39 06 00 00 00 	movabs $0x639,%rcx
 804e5e4:	00 00 00 
 804e5e7:	48 01 c8             	add    %rcx,%rax
 804e5ea:	8b 4d e4             	mov    -0x1c(%rbp),%ecx
 804e5ed:	48 63 c9             	movslq %ecx,%rcx
 804e5f0:	48 89 ca             	mov    %rcx,%rdx
 804e5f3:	48 01 d0             	add    %rdx,%rax
 804e5f6:	48 b9 01 00 00 00 00 	movabs $0x1,%rcx
 804e5fd:	00 00 00 
 804e600:	48 01 c8             	add    %rcx,%rax
 804e603:	8b 4d e0             	mov    -0x20(%rbp),%ecx
 804e606:	49 89 ca             	mov    %rcx,%r10
 804e609:	48 8b 4d e8          	mov    -0x18(%rbp),%rcx
 804e60d:	48 89 ce             	mov    %rcx,%rsi
 804e610:	48 89 c7             	mov    %rax,%rdi
 804e613:	4c 89 d2             	mov    %r10,%rdx
 804e616:	b8 00 00 00 00       	mov    $0x0,%eax
 804e61b:	e8 50 86 03 00       	callq  8086c70 <memcpy>
 804e620:	48 8b 05 79 f8 03 00 	mov    0x3f879(%rip),%rax        # 808dea0 <_GLOBAL_OFFSET_TABLE_+0x220>
 804e627:	48 8b 00             	mov    (%rax),%rax
 804e62a:	48 8b 08             	mov    (%rax),%rcx
 804e62d:	0f b6 01             	movzbl (%rcx),%eax
 804e630:	4c 8b 1d d1 f8 03 00 	mov    0x3f8d1(%rip),%r11        # 808df08 <_GLOBAL_OFFSET_TABLE_+0x288>
 804e637:	41 89 03             	mov    %eax,(%r11)
 804e63a:	b8 00 00 00 00       	mov    $0x0,%eax
 804e63f:	e8 2b 8e 00 00       	callq  805746f <next_nomacro>
 804e644:	b8 00 00 00 00       	mov    $0x0,%eax
 804e649:	e8 b0 5e 00 00       	callq  80544fe <parse_define>
 804e64e:	b8 00 00 00 00       	mov    $0x0,%eax
 804e653:	e8 32 f6 ff ff       	callq  804dc8a <tcc_close>
 804e658:	c9                   	leaveq 
 804e659:	c3                   	retq   

000000000804e65a <tcc_undefine_symbol>:
 804e65a:	55                   	push   %rbp
 804e65b:	48 89 e5             	mov    %rsp,%rbp
 804e65e:	48 81 ec 20 00 00 00 	sub    $0x20,%rsp
 804e665:	48 89 7d f8          	mov    %rdi,-0x8(%rbp)
 804e669:	48 89 75 f0          	mov    %rsi,-0x10(%rbp)
 804e66d:	48 8b 45 f0          	mov    -0x10(%rbp),%rax
 804e671:	48 89 c7             	mov    %rax,%rdi
 804e674:	b8 00 00 00 00       	mov    $0x0,%eax
 804e679:	e8 62 8c 03 00       	callq  80872e0 <strlen>
 804e67e:	48 89 c6             	mov    %rax,%rsi
 804e681:	48 8b 45 f0          	mov    -0x10(%rbp),%rax
 804e685:	48 89 c7             	mov    %rax,%rdi
 804e688:	b8 00 00 00 00       	mov    $0x0,%eax
 804e68d:	e8 d1 30 00 00       	callq  8051763 <tok_alloc>
 804e692:	48 89 45 e8          	mov    %rax,-0x18(%rbp)
 804e696:	48 8b 45 e8          	mov    -0x18(%rbp),%rax
 804e69a:	48 b9 28 00 00 00 00 	movabs $0x28,%rcx
 804e6a1:	00 00 00 
 804e6a4:	48 01 c8             	add    %rcx,%rax
 804e6a7:	8b 08                	mov    (%rax),%ecx
 804e6a9:	48 89 cf             	mov    %rcx,%rdi
 804e6ac:	b8 00 00 00 00       	mov    $0x0,%eax
 804e6b1:	e8 50 57 00 00       	callq  8053e06 <define_find>
 804e6b6:	48 89 45 e0          	mov    %rax,-0x20(%rbp)
 804e6ba:	48 8b 45 e0          	mov    -0x20(%rbp),%rax
 804e6be:	85 c0                	test   %eax,%eax
 804e6c0:	0f 84 11 00 00 00    	je     804e6d7 <tcc_undefine_symbol+0x7d>
 804e6c6:	48 8b 45 e0          	mov    -0x20(%rbp),%rax
 804e6ca:	48 89 c7             	mov    %rax,%rdi
 804e6cd:	b8 00 00 00 00       	mov    $0x0,%eax
 804e6d2:	e8 ac 56 00 00       	callq  8053d83 <define_undef>
 804e6d7:	c9                   	leaveq 
 804e6d8:	c3                   	retq   

000000000804e6d9 <tcc_cleanup>:
 804e6d9:	55                   	push   %rbp
 804e6da:	48 89 e5             	mov    %rsp,%rbp
 804e6dd:	48 81 ec 10 00 00 00 	sub    $0x10,%rsp
 804e6e4:	48 8b 05 a5 f7 03 00 	mov    0x3f7a5(%rip),%rax        # 808de90 <_GLOBAL_OFFSET_TABLE_+0x210>
 804e6eb:	48 8b 00             	mov    (%rax),%rax
 804e6ee:	48 b9 00 00 00 00 00 	movabs $0x0,%rcx
 804e6f5:	00 00 00 
 804e6f8:	48 89 c2             	mov    %rax,%rdx
 804e6fb:	48 39 d1             	cmp    %rdx,%rcx
 804e6fe:	0f 85 05 00 00 00    	jne    804e709 <tcc_cleanup+0x30>
 804e704:	e9 f2 00 00 00       	jmpq   804e7fb <tcc_cleanup+0x122>
 804e709:	b8 00 00 00 00       	mov    $0x0,%eax
 804e70e:	4c 8b 1d 7b f7 03 00 	mov    0x3f77b(%rip),%r11        # 808de90 <_GLOBAL_OFFSET_TABLE_+0x210>
 804e715:	49 89 03             	mov    %rax,(%r11)
 804e718:	b8 00 00 00 00       	mov    $0x0,%eax
 804e71d:	48 89 c7             	mov    %rax,%rdi
 804e720:	b8 00 00 00 00       	mov    $0x0,%eax
 804e725:	e8 53 57 00 00       	callq  8053e7d <free_defines>
 804e72a:	48 8b 05 0f f8 03 00 	mov    0x3f80f(%rip),%rax        # 808df40 <_GLOBAL_OFFSET_TABLE_+0x2c0>
 804e731:	8b 00                	mov    (%rax),%eax
 804e733:	81 e8 00 01 00 00    	sub    $0x100,%eax
 804e739:	89 45 f8             	mov    %eax,-0x8(%rbp)
 804e73c:	b8 00 00 00 00       	mov    $0x0,%eax
 804e741:	89 45 fc             	mov    %eax,-0x4(%rbp)
 804e744:	8b 45 fc             	mov    -0x4(%rbp),%eax
 804e747:	8b 4d f8             	mov    -0x8(%rbp),%ecx
 804e74a:	39 c8                	cmp    %ecx,%eax
 804e74c:	0f 8d 42 00 00 00    	jge    804e794 <tcc_cleanup+0xbb>
 804e752:	e9 0e 00 00 00       	jmpq   804e765 <tcc_cleanup+0x8c>
 804e757:	8b 45 fc             	mov    -0x4(%rbp),%eax
 804e75a:	48 89 c1             	mov    %rax,%rcx
 804e75d:	83 c0 01             	add    $0x1,%eax
 804e760:	89 45 fc             	mov    %eax,-0x4(%rbp)
 804e763:	eb df                	jmp    804e744 <tcc_cleanup+0x6b>
 804e765:	8b 45 fc             	mov    -0x4(%rbp),%eax
 804e768:	48 63 c0             	movslq %eax,%rax
 804e76b:	48 89 c1             	mov    %rax,%rcx
 804e76e:	48 c1 e1 03          	shl    $0x3,%rcx
 804e772:	48 8b 05 cf f7 03 00 	mov    0x3f7cf(%rip),%rax        # 808df48 <_GLOBAL_OFFSET_TABLE_+0x2c8>
 804e779:	48 8b 00             	mov    (%rax),%rax
 804e77c:	48 89 ca             	mov    %rcx,%rdx
 804e77f:	48 01 d0             	add    %rdx,%rax
 804e782:	48 8b 08             	mov    (%rax),%rcx
 804e785:	48 89 cf             	mov    %rcx,%rdi
 804e788:	b8 00 00 00 00       	mov    $0x0,%eax
 804e78d:	e8 a4 d7 ff ff       	callq  804bf36 <tcc_free>
 804e792:	eb c3                	jmp    804e757 <tcc_cleanup+0x7e>
 804e794:	48 8b 05 ad f7 03 00 	mov    0x3f7ad(%rip),%rax        # 808df48 <_GLOBAL_OFFSET_TABLE_+0x2c8>
 804e79b:	48 8b 00             	mov    (%rax),%rax
 804e79e:	48 89 c7             	mov    %rax,%rdi
 804e7a1:	b8 00 00 00 00       	mov    $0x0,%eax
 804e7a6:	e8 8b d7 ff ff       	callq  804bf36 <tcc_free>
 804e7ab:	48 8b 05 9e f7 03 00 	mov    0x3f79e(%rip),%rax        # 808df50 <_GLOBAL_OFFSET_TABLE_+0x2d0>
 804e7b2:	48 89 c6             	mov    %rax,%rsi
 804e7b5:	48 8b 05 9c f7 03 00 	mov    0x3f79c(%rip),%rax        # 808df58 <_GLOBAL_OFFSET_TABLE_+0x2d8>
 804e7bc:	48 89 c7             	mov    %rax,%rdi
 804e7bf:	b8 00 00 00 00       	mov    $0x0,%eax
 804e7c4:	e8 fe d9 ff ff       	callq  804c1c7 <dynarray_reset>
 804e7c9:	48 8b 05 90 f7 03 00 	mov    0x3f790(%rip),%rax        # 808df60 <_GLOBAL_OFFSET_TABLE_+0x2e0>
 804e7d0:	48 89 c7             	mov    %rax,%rdi
 804e7d3:	b8 00 00 00 00       	mov    $0x0,%eax
 804e7d8:	e8 1f 2c 00 00       	callq  80513fc <cstr_free>
 804e7dd:	b8 00 00 00 00       	mov    $0x0,%eax
 804e7e2:	4c 8b 1d 7f f7 03 00 	mov    0x3f77f(%rip),%r11        # 808df68 <_GLOBAL_OFFSET_TABLE_+0x2e8>
 804e7e9:	49 89 03             	mov    %rax,(%r11)
 804e7ec:	b8 00 00 00 00       	mov    $0x0,%eax
 804e7f1:	4c 8b 1d 78 f7 03 00 	mov    0x3f778(%rip),%r11        # 808df70 <_GLOBAL_OFFSET_TABLE_+0x2f0>
 804e7f8:	49 89 03             	mov    %rax,(%r11)
 804e7fb:	c9                   	leaveq 
 804e7fc:	c3                   	retq   

000000000804e7fd <tcc_new>:
 804e7fd:	55                   	push   %rbp
 804e7fe:	48 89 e5             	mov    %rsp,%rbp
 804e801:	48 81 ec 90 00 00 00 	sub    $0x90,%rsp
 804e808:	b8 00 00 00 00       	mov    $0x0,%eax
 804e80d:	e8 c7 fe ff ff       	callq  804e6d9 <tcc_cleanup>
 804e812:	48 b8 b8 0c 00 00 00 	movabs $0xcb8,%rax
 804e819:	00 00 00 
 804e81c:	48 89 c7             	mov    %rax,%rdi
 804e81f:	b8 00 00 00 00       	mov    $0x0,%eax
 804e824:	e8 a3 d7 ff ff       	callq  804bfcc <tcc_mallocz>
 804e829:	48 89 45 f8          	mov    %rax,-0x8(%rbp)
 804e82d:	48 8b 45 f8          	mov    -0x8(%rbp),%rax
 804e831:	85 c0                	test   %eax,%eax
 804e833:	0f 84 05 00 00 00    	je     804e83e <tcc_new+0x41>
 804e839:	e9 0a 00 00 00       	jmpq   804e848 <tcc_new+0x4b>
 804e83e:	b8 00 00 00 00       	mov    $0x0,%eax
 804e843:	e9 b1 06 00 00       	jmpq   804eef9 <tcc_new+0x6fc>
 804e848:	48 8b 45 f8          	mov    -0x8(%rbp),%rax
 804e84c:	4c 8b 1d 3d f6 03 00 	mov    0x3f63d(%rip),%r11        # 808de90 <_GLOBAL_OFFSET_TABLE_+0x210>
 804e853:	49 89 03             	mov    %rax,(%r11)
 804e856:	48 8d 05 15 b1 03 00 	lea    0x3b115(%rip),%rax        # 8089972 <L.129>
 804e85d:	48 89 c6             	mov    %rax,%rsi
 804e860:	48 8b 45 f8          	mov    -0x8(%rbp),%rax
 804e864:	48 89 c7             	mov    %rax,%rdi
 804e867:	b8 00 00 00 00       	mov    $0x0,%eax
 804e86c:	e8 d5 22 00 00       	callq  8050b46 <tcc_set_lib_path>
 804e871:	48 8b 45 f8          	mov    -0x8(%rbp),%rax
 804e875:	b9 00 00 00 00       	mov    $0x0,%ecx
 804e87a:	48 89 ca             	mov    %rcx,%rdx
 804e87d:	81 e2 ff 00 00 00    	and    $0xff,%edx
 804e883:	48 89 4d 80          	mov    %rcx,-0x80(%rbp)
 804e887:	8b 08                	mov    (%rax),%ecx
 804e889:	81 e1 00 ff ff ff    	and    $0xffffff00,%ecx
 804e88f:	48 09 ca             	or     %rcx,%rdx
 804e892:	89 10                	mov    %edx,(%rax)
 804e894:	b8 00 00 00 00       	mov    $0x0,%eax
 804e899:	e8 45 a2 00 00       	callq  8058ae3 <preprocess_new>
 804e89e:	48 8b 45 f8          	mov    -0x8(%rbp),%rax
 804e8a2:	48 b9 08 00 00 00 00 	movabs $0x8,%rcx
 804e8a9:	00 00 00 
 804e8ac:	48 01 c8             	add    %rcx,%rax
 804e8af:	48 8b 4d f8          	mov    -0x8(%rbp),%rcx
 804e8b3:	48 ba 48 02 00 00 00 	movabs $0x248,%rdx
 804e8ba:	00 00 00 
 804e8bd:	48 01 d1             	add    %rdx,%rcx
 804e8c0:	48 89 08             	mov    %rcx,(%rax)
 804e8c3:	b8 00 00 00 00       	mov    $0x0,%eax
 804e8c8:	49 89 c3             	mov    %rax,%r11
 804e8cb:	b8 00 00 00 00       	mov    $0x0,%eax
 804e8d0:	49 89 c2             	mov    %rax,%r10
 804e8d3:	b8 00 00 00 00       	mov    $0x0,%eax
 804e8d8:	48 89 c6             	mov    %rax,%rsi
 804e8db:	b8 46 01 00 00       	mov    $0x146,%eax
 804e8e0:	48 89 c7             	mov    %rax,%rdi
 804e8e3:	4c 89 d2             	mov    %r10,%rdx
 804e8e6:	4c 89 d9             	mov    %r11,%rcx
 804e8e9:	b8 00 00 00 00       	mov    $0x0,%eax
 804e8ee:	e8 4e 53 00 00       	callq  8053c41 <define_push>
 804e8f3:	b8 00 00 00 00       	mov    $0x0,%eax
 804e8f8:	49 89 c3             	mov    %rax,%r11
 804e8fb:	b8 00 00 00 00       	mov    $0x0,%eax
 804e900:	49 89 c2             	mov    %rax,%r10
 804e903:	b8 00 00 00 00       	mov    $0x0,%eax
 804e908:	48 89 c6             	mov    %rax,%rsi
 804e90b:	b8 47 01 00 00       	mov    $0x147,%eax
 804e910:	48 89 c7             	mov    %rax,%rdi
 804e913:	4c 89 d2             	mov    %r10,%rdx
 804e916:	4c 89 d9             	mov    %r11,%rcx
 804e919:	b8 00 00 00 00       	mov    $0x0,%eax
 804e91e:	e8 1e 53 00 00       	callq  8053c41 <define_push>
 804e923:	b8 00 00 00 00       	mov    $0x0,%eax
 804e928:	49 89 c3             	mov    %rax,%r11
 804e92b:	b8 00 00 00 00       	mov    $0x0,%eax
 804e930:	49 89 c2             	mov    %rax,%r10
 804e933:	b8 00 00 00 00       	mov    $0x0,%eax
 804e938:	48 89 c6             	mov    %rax,%rsi
 804e93b:	b8 48 01 00 00       	mov    $0x148,%eax
 804e940:	48 89 c7             	mov    %rax,%rdi
 804e943:	4c 89 d2             	mov    %r10,%rdx
 804e946:	4c 89 d9             	mov    %r11,%rcx
 804e949:	b8 00 00 00 00       	mov    $0x0,%eax
 804e94e:	e8 ee 52 00 00       	callq  8053c41 <define_push>
 804e953:	b8 00 00 00 00       	mov    $0x0,%eax
 804e958:	49 89 c3             	mov    %rax,%r11
 804e95b:	b8 00 00 00 00       	mov    $0x0,%eax
 804e960:	49 89 c2             	mov    %rax,%r10
 804e963:	b8 00 00 00 00       	mov    $0x0,%eax
 804e968:	48 89 c6             	mov    %rax,%rsi
 804e96b:	b8 49 01 00 00       	mov    $0x149,%eax
 804e970:	48 89 c7             	mov    %rax,%rdi
 804e973:	4c 89 d2             	mov    %r10,%rdx
 804e976:	4c 89 d9             	mov    %r11,%rcx
 804e979:	b8 00 00 00 00       	mov    $0x0,%eax
 804e97e:	e8 be 52 00 00       	callq  8053c41 <define_push>
 804e983:	b8 00 00 00 00       	mov    $0x0,%eax
 804e988:	49 89 c2             	mov    %rax,%r10
 804e98b:	48 8d 05 f3 af 03 00 	lea    0x3aff3(%rip),%rax        # 8089985 <L.130>
 804e992:	48 89 c6             	mov    %rax,%rsi
 804e995:	48 8b 45 f8          	mov    -0x8(%rbp),%rax
 804e999:	48 89 c7             	mov    %rax,%rdi
 804e99c:	4c 89 d2             	mov    %r10,%rdx
 804e99f:	b8 00 00 00 00       	mov    $0x0,%eax
 804e9a4:	e8 44 fb ff ff       	callq  804e4ed <tcc_define_symbol>
 804e9a9:	48 8d 05 ef af 03 00 	lea    0x3afef(%rip),%rax        # 808999f <L.132>
 804e9b0:	49 89 c2             	mov    %rax,%r10
 804e9b3:	48 8d 05 d4 af 03 00 	lea    0x3afd4(%rip),%rax        # 808998e <L.131>
 804e9ba:	48 89 c6             	mov    %rax,%rsi
 804e9bd:	48 8b 45 f8          	mov    -0x8(%rbp),%rax
 804e9c1:	48 89 c7             	mov    %rax,%rdi
 804e9c4:	4c 89 d2             	mov    %r10,%rdx
 804e9c7:	b8 00 00 00 00       	mov    $0x0,%eax
 804e9cc:	e8 1c fb ff ff       	callq  804e4ed <tcc_define_symbol>
 804e9d1:	b8 00 00 00 00       	mov    $0x0,%eax
 804e9d6:	49 89 c2             	mov    %rax,%r10
 804e9d9:	48 8d 05 c7 af 03 00 	lea    0x3afc7(%rip),%rax        # 80899a7 <L.133>
 804e9e0:	48 89 c6             	mov    %rax,%rsi
 804e9e3:	48 8b 45 f8          	mov    -0x8(%rbp),%rax
 804e9e7:	48 89 c7             	mov    %rax,%rdi
 804e9ea:	4c 89 d2             	mov    %r10,%rdx
 804e9ed:	b8 00 00 00 00       	mov    $0x0,%eax
 804e9f2:	e8 f6 fa ff ff       	callq  804e4ed <tcc_define_symbol>
 804e9f7:	b8 00 00 00 00       	mov    $0x0,%eax
 804e9fc:	49 89 c2             	mov    %rax,%r10
 804e9ff:	48 8d 05 ac af 03 00 	lea    0x3afac(%rip),%rax        # 80899b2 <L.134>
 804ea06:	48 89 c6             	mov    %rax,%rsi
 804ea09:	48 8b 45 f8          	mov    -0x8(%rbp),%rax
 804ea0d:	48 89 c7             	mov    %rax,%rdi
 804ea10:	4c 89 d2             	mov    %r10,%rdx
 804ea13:	b8 00 00 00 00       	mov    $0x0,%eax
 804ea18:	e8 d0 fa ff ff       	callq  804e4ed <tcc_define_symbol>
 804ea1d:	b8 00 00 00 00       	mov    $0x0,%eax
 804ea22:	49 89 c2             	mov    %rax,%r10
 804ea25:	48 8d 05 8f af 03 00 	lea    0x3af8f(%rip),%rax        # 80899bb <L.135>
 804ea2c:	48 89 c6             	mov    %rax,%rsi
 804ea2f:	48 8b 45 f8          	mov    -0x8(%rbp),%rax
 804ea33:	48 89 c7             	mov    %rax,%rdi
 804ea36:	4c 89 d2             	mov    %r10,%rdx
 804ea39:	b8 00 00 00 00       	mov    $0x0,%eax
 804ea3e:	e8 aa fa ff ff       	callq  804e4ed <tcc_define_symbol>
 804ea43:	b8 00 00 00 00       	mov    $0x0,%eax
 804ea48:	49 89 c2             	mov    %rax,%r10
 804ea4b:	48 8d 05 70 af 03 00 	lea    0x3af70(%rip),%rax        # 80899c2 <L.136>
 804ea52:	48 89 c6             	mov    %rax,%rsi
 804ea55:	48 8b 45 f8          	mov    -0x8(%rbp),%rax
 804ea59:	48 89 c7             	mov    %rax,%rdi
 804ea5c:	4c 89 d2             	mov    %r10,%rdx
 804ea5f:	b8 00 00 00 00       	mov    $0x0,%eax
 804ea64:	e8 84 fa ff ff       	callq  804e4ed <tcc_define_symbol>
 804ea69:	b8 00 00 00 00       	mov    $0x0,%eax
 804ea6e:	49 89 c2             	mov    %rax,%r10
 804ea71:	48 8d 05 4f af 03 00 	lea    0x3af4f(%rip),%rax        # 80899c7 <L.137>
 804ea78:	48 89 c6             	mov    %rax,%rsi
 804ea7b:	48 8b 45 f8          	mov    -0x8(%rbp),%rax
 804ea7f:	48 89 c7             	mov    %rax,%rdi
 804ea82:	4c 89 d2             	mov    %r10,%rdx
 804ea85:	b8 00 00 00 00       	mov    $0x0,%eax
 804ea8a:	e8 5e fa ff ff       	callq  804e4ed <tcc_define_symbol>
 804ea8f:	b8 00 00 00 00       	mov    $0x0,%eax
 804ea94:	49 89 c2             	mov    %rax,%r10
 804ea97:	48 8d 05 33 af 03 00 	lea    0x3af33(%rip),%rax        # 80899d1 <L.138>
 804ea9e:	48 89 c6             	mov    %rax,%rsi
 804eaa1:	48 8b 45 f8          	mov    -0x8(%rbp),%rax
 804eaa5:	48 89 c7             	mov    %rax,%rdi
 804eaa8:	4c 89 d2             	mov    %r10,%rdx
 804eaab:	b8 00 00 00 00       	mov    $0x0,%eax
 804eab0:	e8 38 fa ff ff       	callq  804e4ed <tcc_define_symbol>
 804eab5:	48 8d 45 88          	lea    -0x78(%rbp),%rax
 804eab9:	49 89 c0             	mov    %rax,%r8
 804eabc:	48 8d 45 8c          	lea    -0x74(%rbp),%rax
 804eac0:	49 89 c3             	mov    %rax,%r11
 804eac3:	48 8d 45 90          	lea    -0x70(%rbp),%rax
 804eac7:	49 89 c2             	mov    %rax,%r10
 804eaca:	48 8d 05 0f af 03 00 	lea    0x3af0f(%rip),%rax        # 80899e0 <L.140>
 804ead1:	48 89 c6             	mov    %rax,%rsi
 804ead4:	48 8d 05 fe ae 03 00 	lea    0x3aefe(%rip),%rax        # 80899d9 <L.139>
 804eadb:	48 89 c7             	mov    %rax,%rdi
 804eade:	4c 89 d2             	mov    %r10,%rdx
 804eae1:	4c 89 d9             	mov    %r11,%rcx
 804eae4:	b8 00 00 00 00       	mov    $0x0,%eax
 804eae9:	e8 f2 90 03 00       	callq  8087be0 <__preinit_array_end+0x140>
 804eaee:	8b 45 90             	mov    -0x70(%rbp),%eax
 804eaf1:	b9 10 27 00 00       	mov    $0x2710,%ecx
 804eaf6:	0f af c1             	imul   %ecx,%eax
 804eaf9:	8b 4d 8c             	mov    -0x74(%rbp),%ecx
 804eafc:	ba 64 00 00 00       	mov    $0x64,%edx
 804eb01:	0f af ca             	imul   %edx,%ecx
 804eb04:	48 01 c8             	add    %rcx,%rax
 804eb07:	8b 4d 88             	mov    -0x78(%rbp),%ecx
 804eb0a:	48 01 c8             	add    %rcx,%rax
 804eb0d:	49 89 c2             	mov    %rax,%r10
 804eb10:	48 8d 05 d2 ae 03 00 	lea    0x3aed2(%rip),%rax        # 80899e9 <L.141>
 804eb17:	48 89 c6             	mov    %rax,%rsi
 804eb1a:	48 8d 45 94          	lea    -0x6c(%rbp),%rax
 804eb1e:	48 89 c7             	mov    %rax,%rdi
 804eb21:	4c 89 d2             	mov    %r10,%rdx
 804eb24:	b8 00 00 00 00       	mov    $0x0,%eax
 804eb29:	e8 c2 90 03 00       	callq  8087bf0 <__preinit_array_end+0x150>
 804eb2e:	48 8d 45 94          	lea    -0x6c(%rbp),%rax
 804eb32:	49 89 c2             	mov    %rax,%r10
 804eb35:	48 8d 05 b0 ae 03 00 	lea    0x3aeb0(%rip),%rax        # 80899ec <L.142>
 804eb3c:	48 89 c6             	mov    %rax,%rsi
 804eb3f:	48 8b 45 f8          	mov    -0x8(%rbp),%rax
 804eb43:	48 89 c7             	mov    %rax,%rdi
 804eb46:	4c 89 d2             	mov    %r10,%rdx
 804eb49:	b8 00 00 00 00       	mov    $0x0,%eax
 804eb4e:	e8 9a f9 ff ff       	callq  804e4ed <tcc_define_symbol>
 804eb53:	48 8d 05 aa ae 03 00 	lea    0x3aeaa(%rip),%rax        # 8089a04 <L.144>
 804eb5a:	49 89 c2             	mov    %rax,%r10
 804eb5d:	48 8d 05 92 ae 03 00 	lea    0x3ae92(%rip),%rax        # 80899f6 <L.143>
 804eb64:	48 89 c6             	mov    %rax,%rsi
 804eb67:	48 8b 45 f8          	mov    -0x8(%rbp),%rax
 804eb6b:	48 89 c7             	mov    %rax,%rdi
 804eb6e:	4c 89 d2             	mov    %r10,%rdx
 804eb71:	b8 00 00 00 00       	mov    $0x0,%eax
 804eb76:	e8 72 f9 ff ff       	callq  804e4ed <tcc_define_symbol>
 804eb7b:	48 8d 05 a1 ae 03 00 	lea    0x3aea1(%rip),%rax        # 8089a23 <L.146>
 804eb82:	49 89 c2             	mov    %rax,%r10
 804eb85:	48 8d 05 86 ae 03 00 	lea    0x3ae86(%rip),%rax        # 8089a12 <L.145>
 804eb8c:	48 89 c6             	mov    %rax,%rsi
 804eb8f:	48 8b 45 f8          	mov    -0x8(%rbp),%rax
 804eb93:	48 89 c7             	mov    %rax,%rdi
 804eb96:	4c 89 d2             	mov    %r10,%rdx
 804eb99:	b8 00 00 00 00       	mov    $0x0,%eax
 804eb9e:	e8 4a f9 ff ff       	callq  804e4ed <tcc_define_symbol>
 804eba3:	48 8d 05 8d ae 03 00 	lea    0x3ae8d(%rip),%rax        # 8089a37 <L.148>
 804ebaa:	49 89 c2             	mov    %rax,%r10
 804ebad:	48 8d 05 74 ae 03 00 	lea    0x3ae74(%rip),%rax        # 8089a28 <L.147>
 804ebb4:	48 89 c6             	mov    %rax,%rsi
 804ebb7:	48 8b 45 f8          	mov    -0x8(%rbp),%rax
 804ebbb:	48 89 c7             	mov    %rax,%rdi
 804ebbe:	4c 89 d2             	mov    %r10,%rdx
 804ebc1:	b8 00 00 00 00       	mov    $0x0,%eax
 804ebc6:	e8 22 f9 ff ff       	callq  804e4ed <tcc_define_symbol>
 804ebcb:	48 8d 05 88 ae 03 00 	lea    0x3ae88(%rip),%rax        # 8089a5a <L.150>
 804ebd2:	49 89 c2             	mov    %rax,%r10
 804ebd5:	48 8d 05 5f ae 03 00 	lea    0x3ae5f(%rip),%rax        # 8089a3b <L.149>
 804ebdc:	48 89 c6             	mov    %rax,%rsi
 804ebdf:	48 8b 45 f8          	mov    -0x8(%rbp),%rax
 804ebe3:	48 89 c7             	mov    %rax,%rdi
 804ebe6:	4c 89 d2             	mov    %r10,%rdx
 804ebe9:	b8 00 00 00 00       	mov    $0x0,%eax
 804ebee:	e8 fa f8 ff ff       	callq  804e4ed <tcc_define_symbol>
 804ebf3:	48 8d 05 9f ae 03 00 	lea    0x3ae9f(%rip),%rax        # 8089a99 <L.152>
 804ebfa:	49 89 c2             	mov    %rax,%r10
 804ebfd:	48 8d 05 72 ae 03 00 	lea    0x3ae72(%rip),%rax        # 8089a76 <L.151>
 804ec04:	48 89 c6             	mov    %rax,%rsi
 804ec07:	48 8b 45 f8          	mov    -0x8(%rbp),%rax
 804ec0b:	48 89 c7             	mov    %rax,%rdi
 804ec0e:	4c 89 d2             	mov    %r10,%rdx
 804ec11:	b8 00 00 00 00       	mov    $0x0,%eax
 804ec16:	e8 d2 f8 ff ff       	callq  804e4ed <tcc_define_symbol>
 804ec1b:	48 8d 05 9b ae 03 00 	lea    0x3ae9b(%rip),%rax        # 8089abd <L.153>
 804ec22:	48 89 c6             	mov    %rax,%rsi
 804ec25:	48 8b 45 f8          	mov    -0x8(%rbp),%rax
 804ec29:	48 89 c7             	mov    %rax,%rdi
 804ec2c:	b8 00 00 00 00       	mov    $0x0,%eax
 804ec31:	e8 b6 0c 00 00       	callq  804f8ec <tcc_add_library_path>
 804ec36:	48 8b 45 f8          	mov    -0x8(%rbp),%rax
 804ec3a:	48 b9 58 00 00 00 00 	movabs $0x58,%rcx
 804ec41:	00 00 00 
 804ec44:	48 01 c8             	add    %rcx,%rax
 804ec47:	48 8b 4d f8          	mov    -0x8(%rbp),%rcx
 804ec4b:	48 ba 60 00 00 00 00 	movabs $0x60,%rdx
 804ec52:	00 00 00 
 804ec55:	48 01 d1             	add    %rdx,%rcx
 804ec58:	48 8d 15 81 ae 03 00 	lea    0x3ae81(%rip),%rdx        # 8089ae0 <L.154>
 804ec5f:	49 89 d3             	mov    %rdx,%r11
 804ec62:	49 89 ca             	mov    %rcx,%r10
 804ec65:	48 89 c6             	mov    %rax,%rsi
 804ec68:	48 8b 45 f8          	mov    -0x8(%rbp),%rax
 804ec6c:	48 89 c7             	mov    %rax,%rdi
 804ec6f:	4c 89 d2             	mov    %r10,%rdx
 804ec72:	4c 89 d9             	mov    %r11,%rcx
 804ec75:	b8 00 00 00 00       	mov    $0x0,%eax
 804ec7a:	e8 e2 d5 ff ff       	callq  804c261 <tcc_split_path>
 804ec7f:	48 8b 45 f8          	mov    -0x8(%rbp),%rax
 804ec83:	48 b9 78 00 00 00 00 	movabs $0x78,%rcx
 804ec8a:	00 00 00 
 804ec8d:	48 01 c8             	add    %rcx,%rax
 804ec90:	48 8b 4d f8          	mov    -0x8(%rbp),%rcx
 804ec94:	48 ba 80 00 00 00 00 	movabs $0x80,%rdx
 804ec9b:	00 00 00 
 804ec9e:	48 01 d1             	add    %rdx,%rcx
 804eca1:	ba 00 00 00 00       	mov    $0x0,%edx
 804eca6:	49 89 d2             	mov    %rdx,%r10
 804eca9:	48 89 ce             	mov    %rcx,%rsi
 804ecac:	48 89 c7             	mov    %rax,%rdi
 804ecaf:	4c 89 d2             	mov    %r10,%rdx
 804ecb2:	b8 00 00 00 00       	mov    $0x0,%eax
 804ecb7:	e8 47 d4 ff ff       	callq  804c103 <dynarray_add>
 804ecbc:	b8 06 00 00 00       	mov    $0x6,%eax
 804ecc1:	49 89 c3             	mov    %rax,%r11
 804ecc4:	b8 01 00 00 00       	mov    $0x1,%eax
 804ecc9:	49 89 c2             	mov    %rax,%r10
 804eccc:	48 8d 05 18 ae 03 00 	lea    0x3ae18(%rip),%rax        # 8089aeb <L.155>
 804ecd3:	48 89 c6             	mov    %rax,%rsi
 804ecd6:	48 8b 45 f8          	mov    -0x8(%rbp),%rax
 804ecda:	48 89 c7             	mov    %rax,%rdi
 804ecdd:	4c 89 d2             	mov    %r10,%rdx
 804ece0:	4c 89 d9             	mov    %r11,%rcx
 804ece3:	b8 00 00 00 00       	mov    $0x0,%eax
 804ece8:	e8 0b d8 ff ff       	callq  804c4f8 <new_section>
 804eced:	4c 8b 1d dc f1 03 00 	mov    0x3f1dc(%rip),%r11        # 808ded0 <_GLOBAL_OFFSET_TABLE_+0x250>
 804ecf4:	49 89 03             	mov    %rax,(%r11)
 804ecf7:	b8 03 00 00 00       	mov    $0x3,%eax
 804ecfc:	49 89 c3             	mov    %rax,%r11
 804ecff:	b8 01 00 00 00       	mov    $0x1,%eax
 804ed04:	49 89 c2             	mov    %rax,%r10
 804ed07:	48 8d 05 e3 ad 03 00 	lea    0x3ade3(%rip),%rax        # 8089af1 <L.156>
 804ed0e:	48 89 c6             	mov    %rax,%rsi
 804ed11:	48 8b 45 f8          	mov    -0x8(%rbp),%rax
 804ed15:	48 89 c7             	mov    %rax,%rdi
 804ed18:	4c 89 d2             	mov    %r10,%rdx
 804ed1b:	4c 89 d9             	mov    %r11,%rcx
 804ed1e:	b8 00 00 00 00       	mov    $0x0,%eax
 804ed23:	e8 d0 d7 ff ff       	callq  804c4f8 <new_section>
 804ed28:	4c 8b 1d 49 f2 03 00 	mov    0x3f249(%rip),%r11        # 808df78 <_GLOBAL_OFFSET_TABLE_+0x2f8>
 804ed2f:	49 89 03             	mov    %rax,(%r11)
 804ed32:	b8 03 00 00 00       	mov    $0x3,%eax
 804ed37:	49 89 c3             	mov    %rax,%r11
 804ed3a:	b8 08 00 00 00       	mov    $0x8,%eax
 804ed3f:	49 89 c2             	mov    %rax,%r10
 804ed42:	48 8d 05 ae ad 03 00 	lea    0x3adae(%rip),%rax        # 8089af7 <L.157>
 804ed49:	48 89 c6             	mov    %rax,%rsi
 804ed4c:	48 8b 45 f8          	mov    -0x8(%rbp),%rax
 804ed50:	48 89 c7             	mov    %rax,%rdi
 804ed53:	4c 89 d2             	mov    %r10,%rdx
 804ed56:	4c 89 d9             	mov    %r11,%rcx
 804ed59:	b8 00 00 00 00       	mov    $0x0,%eax
 804ed5e:	e8 95 d7 ff ff       	callq  804c4f8 <new_section>
 804ed63:	4c 8b 1d 16 f2 03 00 	mov    0x3f216(%rip),%r11        # 808df80 <_GLOBAL_OFFSET_TABLE_+0x300>
 804ed6a:	49 89 03             	mov    %rax,(%r11)
 804ed6d:	50                   	push   %rax
 804ed6e:	b8 00 00 00 80       	mov    $0x80000000,%eax
 804ed73:	50                   	push   %rax
 804ed74:	48 8d 05 91 ad 03 00 	lea    0x3ad91(%rip),%rax        # 8089b0c <L.160>
 804ed7b:	49 89 c1             	mov    %rax,%r9
 804ed7e:	48 8d 05 7f ad 03 00 	lea    0x3ad7f(%rip),%rax        # 8089b04 <L.159>
 804ed85:	49 89 c0             	mov    %rax,%r8
 804ed88:	b8 00 00 00 00       	mov    $0x0,%eax
 804ed8d:	49 89 c3             	mov    %rax,%r11
 804ed90:	b8 02 00 00 00       	mov    $0x2,%eax
 804ed95:	49 89 c2             	mov    %rax,%r10
 804ed98:	48 8d 05 5d ad 03 00 	lea    0x3ad5d(%rip),%rax        # 8089afc <L.158>
 804ed9f:	48 89 c6             	mov    %rax,%rsi
 804eda2:	48 8b 45 f8          	mov    -0x8(%rbp),%rax
 804eda6:	48 89 c7             	mov    %rax,%rdi
 804eda9:	4c 89 d2             	mov    %r10,%rdx
 804edac:	4c 89 d9             	mov    %r11,%rcx
 804edaf:	b8 00 00 00 00       	mov    $0x0,%eax
 804edb4:	e8 1f 1e 02 00       	callq  8070bd8 <new_symtab>
 804edb9:	48 83 c4 10          	add    $0x10,%rsp
 804edbd:	4c 8b 1d d4 f0 03 00 	mov    0x3f0d4(%rip),%r11        # 808de98 <_GLOBAL_OFFSET_TABLE_+0x218>
 804edc4:	49 89 03             	mov    %rax,(%r11)
 804edc7:	48 8b 05 ca f0 03 00 	mov    0x3f0ca(%rip),%rax        # 808de98 <_GLOBAL_OFFSET_TABLE_+0x218>
 804edce:	48 8b 00             	mov    (%rax),%rax
 804edd1:	48 b9 58 00 00 00 00 	movabs $0x58,%rcx
 804edd8:	00 00 00 
 804eddb:	48 01 c8             	add    %rcx,%rax
 804edde:	48 8b 08             	mov    (%rax),%rcx
